MODULE windows x86_64 DB3A633D47434140B009AF39105CE4F31 next_sdk.pdb
INFO CODE_ID 6644B0991AC000 next_sdk.dll
FUNC 1000 17d 0 static void next::sdk::logger::`dynamic initializer for 'kLogLevel''()
FUNC 1180 17d 0 static void next::sdk::logger::`dynamic initializer for 'kLogLevelLowerCase''()
FUNC 1300 263 0 static void next::sdk::logger::`dynamic initializer for 'kLogLevelStrToEnum''()
FUNC 1570 17d 0 static void next::sdk::logger::`dynamic initializer for 'kLogLevel''()
FUNC 16f0 17d 0 static void next::sdk::logger::`dynamic initializer for 'kLogLevelLowerCase''()
FUNC 1870 263 0 static void next::sdk::logger::`dynamic initializer for 'kLogLevelStrToEnum''()
FUNC 1ae0 17d 0 static void next::sdk::logger::`dynamic initializer for 'kLogLevel''()
FUNC 1c60 17d 0 static void next::sdk::logger::`dynamic initializer for 'kLogLevelLowerCase''()
FUNC 1de0 263 0 static void next::sdk::logger::`dynamic initializer for 'kLogLevelStrToEnum''()
FUNC 2050 27 0 static void next::sdk::events::`dynamic initializer for 'event_clients''()
FUNC 2080 27 0 static void next::sdk::events::`dynamic initializer for 'event_publishers''()
FUNC 20b0 27 0 static void next::sdk::events::`dynamic initializer for 'event_servers''()
FUNC 20e0 27 0 static void next::sdk::events::`dynamic initializer for 'event_subscribers''()
FUNC 2110 17d 0 static void next::sdk::logger::`dynamic initializer for 'kLogLevel''()
FUNC 2290 17d 0 static void next::sdk::logger::`dynamic initializer for 'kLogLevelLowerCase''()
FUNC 2410 263 0 static void next::sdk::logger::`dynamic initializer for 'kLogLevelStrToEnum''()
FUNC 2680 17d 0 static void next::sdk::logger::`dynamic initializer for 'kLogLevel''()
FUNC 2800 17d 0 static void next::sdk::logger::`dynamic initializer for 'kLogLevelLowerCase''()
FUNC 2980 263 0 static void next::sdk::logger::`dynamic initializer for 'kLogLevelStrToEnum''()
FUNC 2bf0 6d 0 static void next::sdk::events::`dynamic initializer for 'publisher_hash_creation_time_map''()
FUNC 2c60 17d 0 static void next::sdk::logger::`dynamic initializer for 'kLogLevel''()
FUNC 2de0 17d 0 static void next::sdk::logger::`dynamic initializer for 'kLogLevelLowerCase''()
FUNC 2f60 263 0 static void next::sdk::logger::`dynamic initializer for 'kLogLevelStrToEnum''()
FUNC 31d0 17d 0 static void next::sdk::logger::`dynamic initializer for 'kLogLevel''()
FUNC 3350 17d 0 static void next::sdk::logger::`dynamic initializer for 'kLogLevelLowerCase''()
FUNC 34d0 263 0 static void next::sdk::logger::`dynamic initializer for 'kLogLevelStrToEnum''()
FUNC 3740 2d9 0 static void next::sdk::events::`dynamic initializer for 'kCycleStatus''()
FUNC 3a20 2d9 0 static void next::sdk::events::`dynamic initializer for 'kCycleStatusStrToEnum''()
FUNC 3d00 17d 0 static void next::sdk::logger::`dynamic initializer for 'kLogLevel''()
FUNC 3e80 17d 0 static void next::sdk::logger::`dynamic initializer for 'kLogLevelLowerCase''()
FUNC 4000 263 0 static void next::sdk::logger::`dynamic initializer for 'kLogLevelStrToEnum''()
FUNC 4270 17d 0 static void next::sdk::logger::`dynamic initializer for 'kLogLevel''()
FUNC 43f0 17d 0 static void next::sdk::logger::`dynamic initializer for 'kLogLevelLowerCase''()
FUNC 4570 263 0 static void next::sdk::logger::`dynamic initializer for 'kLogLevelStrToEnum''()
FUNC 47e0 17d 0 static void next::sdk::logger::`dynamic initializer for 'kLogLevel''()
FUNC 4960 17d 0 static void next::sdk::logger::`dynamic initializer for 'kLogLevelLowerCase''()
FUNC 4ae0 263 0 static void next::sdk::logger::`dynamic initializer for 'kLogLevelStrToEnum''()
FUNC 4d50 17d 0 static void next::sdk::logger::`dynamic initializer for 'kLogLevel''()
FUNC 4ed0 17d 0 static void next::sdk::logger::`dynamic initializer for 'kLogLevelLowerCase''()
FUNC 5050 263 0 static void next::sdk::logger::`dynamic initializer for 'kLogLevelStrToEnum''()
FUNC 52c0 17d 0 static void next::sdk::logger::`dynamic initializer for 'kLogLevel''()
FUNC 5440 17d 0 static void next::sdk::logger::`dynamic initializer for 'kLogLevelLowerCase''()
FUNC 55c0 263 0 static void next::sdk::logger::`dynamic initializer for 'kLogLevelStrToEnum''()
FUNC 5830 17d 0 static void next::sdk::logger::`dynamic initializer for 'kLogLevel''()
FUNC 59b0 17d 0 static void next::sdk::logger::`dynamic initializer for 'kLogLevelLowerCase''()
FUNC 5b30 263 0 static void next::sdk::logger::`dynamic initializer for 'kLogLevelStrToEnum''()
FUNC 5da0 17d 0 static void next::sdk::logger::`dynamic initializer for 'kLogLevel''()
FUNC 5f20 17d 0 static void next::sdk::logger::`dynamic initializer for 'kLogLevelLowerCase''()
FUNC 60a0 263 0 static void next::sdk::logger::`dynamic initializer for 'kLogLevelStrToEnum''()
FUNC 6310 17d 0 static void next::sdk::logger::`dynamic initializer for 'kLogLevel''()
FUNC 6490 17d 0 static void next::sdk::logger::`dynamic initializer for 'kLogLevelLowerCase''()
FUNC 6610 263 0 static void next::sdk::logger::`dynamic initializer for 'kLogLevelStrToEnum''()
FUNC 6880 17d 0 static void next::sdk::logger::`dynamic initializer for 'kLogLevel''()
FUNC 6a00 17d 0 static void next::sdk::logger::`dynamic initializer for 'kLogLevelLowerCase''()
FUNC 6b80 263 0 static void next::sdk::logger::`dynamic initializer for 'kLogLevelStrToEnum''()
FUNC 6df0 17d 0 static void next::sdk::logger::`dynamic initializer for 'kLogLevel''()
FUNC 6f70 17d 0 static void next::sdk::logger::`dynamic initializer for 'kLogLevelLowerCase''()
FUNC 70f0 263 0 static void next::sdk::logger::`dynamic initializer for 'kLogLevelStrToEnum''()
FUNC 7360 17d 0 static void next::sdk::logger::`dynamic initializer for 'kLogLevel''()
FUNC 74e0 17d 0 static void next::sdk::logger::`dynamic initializer for 'kLogLevelLowerCase''()
FUNC 7660 263 0 static void next::sdk::logger::`dynamic initializer for 'kLogLevelStrToEnum''()
FUNC 78d0 17d 0 static void next::sdk::logger::`dynamic initializer for 'kLogLevel''()
FUNC 7a50 17d 0 static void next::sdk::logger::`dynamic initializer for 'kLogLevelLowerCase''()
FUNC 7bd0 263 0 static void next::sdk::logger::`dynamic initializer for 'kLogLevelStrToEnum''()
FUNC 7e40 1c9 0 static void next::sdk::events::`dynamic initializer for 'kEventStatusOriginToNodeName''()
FUNC 8010 17d 0 static void next::sdk::logger::`dynamic initializer for 'kLogLevel''()
FUNC 8190 17d 0 static void next::sdk::logger::`dynamic initializer for 'kLogLevelLowerCase''()
FUNC 8310 263 0 static void next::sdk::logger::`dynamic initializer for 'kLogLevelStrToEnum''()
FUNC 8580 17d 0 static void next::sdk::logger::`dynamic initializer for 'kLogLevel''()
FUNC 8700 17d 0 static void next::sdk::logger::`dynamic initializer for 'kLogLevelLowerCase''()
FUNC 8880 263 0 static void next::sdk::logger::`dynamic initializer for 'kLogLevelStrToEnum''()
FUNC 8af0 17d 0 static void next::sdk::logger::`dynamic initializer for 'kLogLevel''()
FUNC 8c70 17d 0 static void next::sdk::logger::`dynamic initializer for 'kLogLevelLowerCase''()
FUNC 8df0 263 0 static void next::sdk::logger::`dynamic initializer for 'kLogLevelStrToEnum''()
FUNC 9060 17d 0 static void next::sdk::logger::`dynamic initializer for 'kLogLevel''()
FUNC 91e0 17d 0 static void next::sdk::logger::`dynamic initializer for 'kLogLevelLowerCase''()
FUNC 9360 263 0 static void next::sdk::logger::`dynamic initializer for 'kLogLevelStrToEnum''()
FUNC 95d0 17d 0 static void next::sdk::logger::`dynamic initializer for 'kLogLevel''()
FUNC 9750 17d 0 static void next::sdk::logger::`dynamic initializer for 'kLogLevelLowerCase''()
FUNC 98d0 263 0 static void next::sdk::logger::`dynamic initializer for 'kLogLevelStrToEnum''()
FUNC 9b40 2f 0 static void `dynamic initializer for 'boost::system::detail::stdcat_mx_holder<void>::mx_''()
FUNC 9b70 c 0 static void next::sdk::logger::`dynamic initializer for 'console_sink''()
FUNC 9b80 c 0 static void next::sdk::logger::`dynamic initializer for 'file_sink''()
FUNC 9b90 2d 0 static void next::sdk::logger::`dynamic initializer for 'filename''()
FUNC 9bc0 17d 0 static void next::sdk::logger::`dynamic initializer for 'kLogLevel''()
FUNC 9d40 17d 0 static void next::sdk::logger::`dynamic initializer for 'kLogLevelLowerCase''()
FUNC 9ec0 263 0 static void next::sdk::logger::`dynamic initializer for 'kLogLevelStrToEnum''()
FUNC a130 c 0 static void next::sdk::logger::`dynamic initializer for 'log_router''()
FUNC a140 20 0 static void next::sdk::logger::`dynamic initializer for 'nextsdk_logger''()
FUNC a160 c 0 static void next::sdk::logger::`dynamic initializer for 'sentinel_ptr''()
FUNC a170 17d 0 static void next::sdk::logger::`dynamic initializer for 'kLogLevel''()
FUNC a2f0 17d 0 static void next::sdk::logger::`dynamic initializer for 'kLogLevelLowerCase''()
FUNC a470 263 0 static void next::sdk::logger::`dynamic initializer for 'kLogLevelStrToEnum''()
FUNC a6e0 1bd 0 static void next::sdk::profiler::`dynamic initializer for 'kProfilingLevel''()
FUNC a8a0 c 0 static void next::sdk::shutdown_handler::`dynamic initializer for 'callback''()
FUNC a8b0 17d 0 static void next::sdk::logger::`dynamic initializer for 'kLogLevel''()
FUNC aa30 17d 0 static void next::sdk::logger::`dynamic initializer for 'kLogLevelLowerCase''()
FUNC abb0 263 0 static void next::sdk::logger::`dynamic initializer for 'kLogLevelStrToEnum''()
FUNC ae20 389 0 static void next::sdk::types::`dynamic initializer for 'data_description_format_string_to_type''()
FUNC b1b0 399 0 static void next::sdk::types::`dynamic initializer for 'data_description_format_type_to_string''()
FUNC b550 4a9 0 static void next::sdk::types::`dynamic initializer for 'package_format_string_to_format''()
FUNC ba00 479 0 static void next::sdk::types::`dynamic initializer for 'package_format_type_to_string''()
FUNC be80 c 0 static void next::sdk::version_manager::`dynamic initializer for 'version_info_event''()
FUNC be90 c 0 static void next::sdk::version_manager::`dynamic initializer for 'version_info_package''()
FUNC bf98 c 0 static void std::`dynamic initializer for '_Fac_tidy_reg''()
FUNC c020 69 0 fmt::v9::detail::bigint::operator=<int>(int)
FUNC c090 1c9 0 fmt::v9::detail::default_arg_formatter<char>::operator()<double>(double)
FUNC c260 7c 0 fmt::v9::detail::bigint::operator*=<int>(int)
FUNC c2e0 52 0 struct std::_List_node<std::pair<std::basic_string<char,std::char_traits<char>,std::allocator<char> > const ,enum next::sdk::logger::LOGLEVEL>,void *> * std::_List_buy<std::pair<std::basic_string<char,std::char_traits<char>,std::allocator<char> > const ,enum next::sdk::logger::LOGLEVEL>,std::allocator<std::pair<std::basic_string<char,std::char_traits<char>,std::allocator<char> > const ,enum next::sdk::logger::LOGLEVEL> > >::_Buynode<std::pair<std::basic_string<char,std::char_traits<char>,std::allocator<char> > const ,enum next::sdk::logger::LOGLEVEL> const &>(struct std::_List_node<std::pair<std::basic_string<char,std::char_traits<char>,std::allocator<char> > const ,enum next::sdk::logger::LOGLEVEL>,void *> *, struct std::_List_node<std::pair<std::basic_string<char,std::char_traits<char>,std::allocator<char> > const ,enum next::sdk::logger::LOGLEVEL>,void *> *, const struct std::pair<std::basic_string<char,std::char_traits<char>,std::allocator<char> > const ,enum next::sdk::logger::LOGLEVEL> & const)
FUNC c340 49 0 struct std::_List_node<std::pair<enum next::sdk::logger::LOGLEVEL const ,std::basic_string<char,std::char_traits<char>,std::allocator<char> > >,void *> * std::_List_buy<std::pair<enum next::sdk::logger::LOGLEVEL const ,std::basic_string<char,std::char_traits<char>,std::allocator<char> > >,std::allocator<std::pair<enum next::sdk::logger::LOGLEVEL const ,std::basic_string<char,std::char_traits<char>,std::allocator<char> > > > >::_Buynode<std::pair<enum next::sdk::logger::LOGLEVEL const ,std::basic_string<char,std::char_traits<char>,std::allocator<char> > > const &>(struct std::_List_node<std::pair<enum next::sdk::logger::LOGLEVEL const ,std::basic_string<char,std::char_traits<char>,std::allocator<char> > >,void *> *, struct std::_List_node<std::pair<enum next::sdk::logger::LOGLEVEL const ,std::basic_string<char,std::char_traits<char>,std::allocator<char> > >,void *> *, const struct std::pair<enum next::sdk::logger::LOGLEVEL const ,std::basic_string<char,std::char_traits<char>,std::allocator<char> > > & const)
FUNC c390 97 0 void std::_Fill_unchecked<std::_List_unchecked_iterator<std::_List_val<std::_List_simple_types<std::pair<std::basic_string<char,std::char_traits<char>,std::allocator<char> > const ,enum next::sdk::logger::LOGLEVEL> > > > *,std::_List_unchecked_iterator<std::_List_val<std::_List_simple_types<std::pair<std::basic_string<char,std::char_traits<char>,std::allocator<char> > const ,enum next::sdk::logger::LOGLEVEL> > > > >(class std::_List_unchecked_iterator<std::_List_val<std::_List_simple_types<std::pair<std::basic_string<char,std::char_traits<char>,std::allocator<char> > const ,enum next::sdk::logger::LOGLEVEL> > > > *, class std::_List_unchecked_iterator<std::_List_val<std::_List_simple_types<std::pair<std::basic_string<char,std::char_traits<char>,std::allocator<char> > const ,enum next::sdk::logger::LOGLEVEL> > > > *, const class std::_List_unchecked_iterator<std::_List_val<std::_List_simple_types<std::pair<std::basic_string<char,std::char_traits<char>,std::allocator<char> > const ,enum next::sdk::logger::LOGLEVEL> > > > & const)
FUNC c430 97 0 void std::_Fill_unchecked<std::_List_unchecked_iterator<std::_List_val<std::_List_simple_types<std::pair<enum next::sdk::logger::LOGLEVEL const ,std::basic_string<char,std::char_traits<char>,std::allocator<char> > > > > > *,std::_List_unchecked_iterator<std::_List_val<std::_List_simple_types<std::pair<enum next::sdk::logger::LOGLEVEL const ,std::basic_string<char,std::char_traits<char>,std::allocator<char> > > > > > >(class std::_List_unchecked_iterator<std::_List_val<std::_List_simple_types<std::pair<enum next::sdk::logger::LOGLEVEL const ,std::basic_string<char,std::char_traits<char>,std::allocator<char> > > > > > *, class std::_List_unchecked_iterator<std::_List_val<std::_List_simple_types<std::pair<enum next::sdk::logger::LOGLEVEL const ,std::basic_string<char,std::char_traits<char>,std::allocator<char> > > > > > *, const class std::_List_unchecked_iterator<std::_List_val<std::_List_simple_types<std::pair<enum next::sdk::logger::LOGLEVEL const ,std::basic_string<char,std::char_traits<char>,std::allocator<char> > > > > > & const)
FUNC c4d0 265 0 struct std::pair<std::_List_iterator<std::_List_val<std::_List_simple_types<std::pair<std::basic_string<char,std::char_traits<char>,std::allocator<char> > const ,enum next::sdk::logger::LOGLEVEL> > > >,bool> std::_Hash<std::_Umap_traits<std::basic_string<char,std::char_traits<char>,std::allocator<char> >,enum next::sdk::logger::LOGLEVEL,std::_Uhash_compare<std::basic_string<char,std::char_traits<char>,std::allocator<char> >,std::hash<std::basic_string<char,std::char_traits<char>,std::allocator<char> > >,std::equal_to<std::basic_string<char,std::char_traits<char>,std::allocator<char> > > >,std::allocator<std::pair<std::basic_string<char,std::char_traits<char>,std::allocator<char> > const ,enum next::sdk::logger::LOGLEVEL> >,0> >::_Insert<std::pair<std::basic_string<char,std::char_traits<char>,std::allocator<char> > const ,enum next::sdk::logger::LOGLEVEL> &,std::_List_unchecked_iterator<std::_List_val<std::_List_simple_types<std::pair<std::basic_string<char,std::char_traits<char>,std::allocator<char> > const ,enum next::sdk::logger::LOGLEVEL> > > > >(struct std::pair<std::basic_string<char,std::char_traits<char>,std::allocator<char> > const ,enum next::sdk::logger::LOGLEVEL> & const, class std::_List_unchecked_iterator<std::_List_val<std::_List_simple_types<std::pair<std::basic_string<char,std::char_traits<char>,std::allocator<char> > const ,enum next::sdk::logger::LOGLEVEL> > > >)
FUNC c740 230 0 struct std::pair<std::_List_iterator<std::_List_val<std::_List_simple_types<std::pair<enum next::sdk::logger::LOGLEVEL const ,std::basic_string<char,std::char_traits<char>,std::allocator<char> > > > > >,bool> std::_Hash<std::_Umap_traits<enum next::sdk::logger::LOGLEVEL,std::basic_string<char,std::char_traits<char>,std::allocator<char> >,std::_Uhash_compare<enum next::sdk::logger::LOGLEVEL,std::hash<enum next::sdk::logger::LOGLEVEL>,std::equal_to<enum next::sdk::logger::LOGLEVEL> >,std::allocator<std::pair<enum next::sdk::logger::LOGLEVEL const ,std::basic_string<char,std::char_traits<char>,std::allocator<char> > > >,0> >::_Insert<std::pair<enum next::sdk::logger::LOGLEVEL const ,std::basic_string<char,std::char_traits<char>,std::allocator<char> > > &,std::_List_unchecked_iterator<std::_List_val<std::_List_simple_types<std::pair<enum next::sdk::logger::LOGLEVEL const ,std::basic_string<char,std::char_traits<char>,std::allocator<char> > > > > > >(struct std::pair<enum next::sdk::logger::LOGLEVEL const ,std::basic_string<char,std::char_traits<char>,std::allocator<char> > > & const, class std::_List_unchecked_iterator<std::_List_val<std::_List_simple_types<std::pair<enum next::sdk::logger::LOGLEVEL const ,std::basic_string<char,std::char_traits<char>,std::allocator<char> > > > > >)
FUNC c970 8 0 std::_Ptr_copy_cat<char const ,char>(char const * const &,char * const &)
FUNC c980 8 0 std::_Ptr_copy_cat<char,char>(char * const &,char * const &)
FUNC c990 8 0 std::_Ptr_copy_cat<int,int>(int * const &,int * const &)
FUNC c9a0 8 0 std::_Ptr_copy_cat<unsigned int,unsigned int>(unsigned int * const &,unsigned int * const &)
FUNC c9b0 b1 0 fmt::v9::detail::buffer<char>::append<char>(char const *,char const *)
FUNC ca70 263 0 fmt::v9::detail::digit_grouping<char>::apply<fmt::v9::appender,char>(fmt::v9::appender,fmt::v9::basic_string_view<char>)
FUNC cce0 3 0 fmt::v9::detail::bit_cast<unsigned int,float,0>(float const &)
FUNC ccf0 4 0 fmt::v9::detail::bit_cast<unsigned __int64,double,0>(double const &)
FUNC cd00 4 0 fmt::v9::detail::bit_cast<unsigned __int64,long double,0>(long double const &)
FUNC cd10 4 0 unsigned __int64 fmt::v9::detail::bit_cast<unsigned __int64,char const *,0>(const char * & const)
FUNC cd20 4 0 unsigned __int64 fmt::v9::detail::bit_cast<unsigned __int64,void const *,0>(const void * & const)
FUNC cd30 3 0 void fmt::v9::detail::check_format_string<char const *,char const * &,int &,`<lambda_6c99cb1ddaf11cfb871844c1e6395531>::operator()'::`2'::FMT_COMPILE_STRING,0>(struct spdlog::logger::log_::__l10::<lambda_6c99cb1ddaf11cfb871844c1e6395531>::()::__l2::FMT_COMPILE_STRING)
FUNC cd40 4 0 fmt::v9::detail::convert_for_visit<fmt::v9::detail::int128_opt>(fmt::v9::detail::int128_opt)
FUNC cd50 4 0 fmt::v9::detail::convert_for_visit<fmt::v9::detail::uint128_opt>(fmt::v9::detail::uint128_opt)
FUNC cd60 29 0 class fmt::v9::appender fmt::v9::detail::copy_str<char,char *>(char *, char *, class fmt::v9::appender)
FUNC cd90 29 0 class fmt::v9::appender fmt::v9::detail::copy_str<char,char const *>(const char *, const char *, class fmt::v9::appender)
FUNC cdc0 137 0 next::sdk::logger::debug<>(std::basic_string<char,std::char_traits<char>,std::allocator<char> > const &,char const *)
FUNC cf00 1ad 0 static const char * fmt::v9::detail::do_parse_arg_id<char,`fmt::v9::detail::parse_replacement_field<char,`fmt::v9::detail::vformat_to<char>'::`2'::format_handler &>'::`2'::id_adapter &>(const char *, const char *, struct fmt::v9::detail::parse_replacement_field::__l2::id_adapter & const)
FUNC d0b0 316 0 const char * fmt::v9::detail::do_parse_arg_id<char,`fmt::v9::detail::parse_precision<char,fmt::v9::detail::specs_checker<fmt::v9::detail::specs_handler<char> > &>'::`2'::precision_adapter &>(const char *, const char *, struct fmt::v9::detail::parse_precision::__l2::precision_adapter & const)
FUNC d3d0 314 0 const char * fmt::v9::detail::do_parse_arg_id<char,`fmt::v9::detail::parse_width<char,fmt::v9::detail::specs_checker<fmt::v9::detail::specs_handler<char> > &>'::`2'::width_adapter &>(const char *, const char *, struct fmt::v9::detail::parse_width::__l2::width_adapter & const)
FUNC d6f0 48b 0 fmt::v9::detail::do_write_float<fmt::v9::appender,fmt::v9::detail::dragonbox::decimal_fp<float>,char,fmt::v9::detail::digit_grouping<char> >(fmt::v9::appender,fmt::v9::detail::dragonbox::decimal_fp<float> const &,fmt::v9::basic_format_specs<char> const &,fmt::v9::detail::float_specs,fmt::v9::detail::locale_ref)
FUNC db80 3a1 0 fmt::v9::detail::do_write_float<fmt::v9::appender,fmt::v9::detail::dragonbox::decimal_fp<float>,char,fmt::v9::detail::fallback_digit_grouping<char> >(fmt::v9::appender,fmt::v9::detail::dragonbox::decimal_fp<float> const &,fmt::v9::basic_format_specs<char> const &,fmt::v9::detail::float_specs,fmt::v9::detail::locale_ref)
FUNC df30 49b 0 fmt::v9::detail::do_write_float<fmt::v9::appender,fmt::v9::detail::dragonbox::decimal_fp<double>,char,fmt::v9::detail::digit_grouping<char> >(fmt::v9::appender,fmt::v9::detail::dragonbox::decimal_fp<double> const &,fmt::v9::basic_format_specs<char> const &,fmt::v9::detail::float_specs,fmt::v9::detail::locale_ref)
FUNC e3d0 3b3 0 fmt::v9::detail::do_write_float<fmt::v9::appender,fmt::v9::detail::dragonbox::decimal_fp<double>,char,fmt::v9::detail::fallback_digit_grouping<char> >(fmt::v9::appender,fmt::v9::detail::dragonbox::decimal_fp<double> const &,fmt::v9::basic_format_specs<char> const &,fmt::v9::detail::float_specs,fmt::v9::detail::locale_ref)
FUNC e790 464 0 fmt::v9::detail::do_write_float<fmt::v9::appender,fmt::v9::detail::big_decimal_fp,char,fmt::v9::detail::digit_grouping<char> >(fmt::v9::appender,fmt::v9::detail::big_decimal_fp const &,fmt::v9::basic_format_specs<char> const &,fmt::v9::detail::float_specs,fmt::v9::detail::locale_ref)
FUNC ec00 38a 0 fmt::v9::detail::do_write_float<fmt::v9::appender,fmt::v9::detail::big_decimal_fp,char,fmt::v9::detail::fallback_digit_grouping<char> >(fmt::v9::appender,fmt::v9::detail::big_decimal_fp const &,fmt::v9::basic_format_specs<char> const &,fmt::v9::detail::float_specs,fmt::v9::detail::locale_ref)
FUNC ef90 10e 0 std::_Hash<std::_Umap_traits<std::basic_string<char,std::char_traits<char>,std::allocator<char> >,next::sdk::logger::LOGLEVEL,std::_Uhash_compare<std::basic_string<char,std::char_traits<char>,std::allocator<char> >,std::hash<std::basic_string<char,std::char_traits<char>,std::allocator<char> > >,std::equal_to<std::basic_string<char,std::char_traits<char>,std::allocator<char> > > >,std::allocator<std::pair<std::basic_string<char,std::char_traits<char>,std::allocator<char> > const ,next::sdk::logger::LOGLEVEL> >,0> >::erase<std::_List_iterator<std::_List_val<std::_List_simple_types<std::pair<std::basic_string<char,std::char_traits<char>,std::allocator<char> > const ,next::sdk::logger::LOGLEVEL> > > >,void>(std::_List_iterator<std::_List_val<std::_List_simple_types<std::pair<std::basic_string<char,std::char_traits<char>,std::allocator<char> > const ,next::sdk::logger::LOGLEVEL> > > >)
FUNC f0a0 f2 0 std::_Hash<std::_Umap_traits<next::sdk::logger::LOGLEVEL,std::basic_string<char,std::char_traits<char>,std::allocator<char> >,std::_Uhash_compare<next::sdk::logger::LOGLEVEL,std::hash<next::sdk::logger::LOGLEVEL>,std::equal_to<next::sdk::logger::LOGLEVEL> >,std::allocator<std::pair<next::sdk::logger::LOGLEVEL const ,std::basic_string<char,std::char_traits<char>,std::allocator<char> > > >,0> >::erase<std::_List_iterator<std::_List_val<std::_List_simple_types<std::pair<next::sdk::logger::LOGLEVEL const ,std::basic_string<char,std::char_traits<char>,std::allocator<char> > > > > >,void>(std::_List_iterator<std::_List_val<std::_List_simple_types<std::pair<next::sdk::logger::LOGLEVEL const ,std::basic_string<char,std::char_traits<char>,std::allocator<char> > > > > >)
FUNC f1a0 137 0 next::sdk::logger::error<>(std::basic_string<char,std::char_traits<char>,std::allocator<char> > const &,char const *)
FUNC f2e0 2d 0 fmt::v9::detail::fill_n<char,int>(char *,int,char)
FUNC f310 2b 0 fmt::v9::detail::fill_n<char,unsigned __int64>(char *,unsigned __int64,char)
FUNC f340 a4 0 fmt::v9::detail::find_escape<char>(char const *,char const *)
FUNC f3f0 2dd 0 fmt::v9::detail::for_each_codepoint<`fmt::v9::detail::compute_width(fmt::v9::basic_string_view<char>)'::`2'::count_code_points>(fmt::v9::basic_string_view<char>,`fmt::v9::detail::compute_width(fmt::v9::basic_string_view<char>)'::`2'::count_code_points)
FUNC f6d0 91 0 fmt::v9::detail::format_decimal<char,unsigned int>(char *,unsigned int,int)
FUNC f770 d1 0 fmt::v9::detail::format_decimal<char,unsigned int,fmt::v9::appender,0>(fmt::v9::appender,unsigned int,int)
FUNC f850 a1 0 fmt::v9::detail::format_decimal<char,unsigned __int64>(char *,unsigned __int64,int)
FUNC f900 f0 0 fmt::v9::detail::format_decimal<char,unsigned __int64,fmt::v9::appender,0>(fmt::v9::appender,unsigned __int64,int)
FUNC f9f0 451 0 fmt::v9::detail::format_float<double>(double,int,fmt::v9::detail::float_specs,fmt::v9::detail::buffer<char> &)
FUNC fe50 fc 0 fmt::v9::detail::format_uint<4,char,fmt::v9::appender,unsigned __int64>(fmt::v9::appender,unsigned __int64,int,bool)
FUNC ff50 bc 0 fmt::v9::detail::get_dynamic_spec<fmt::v9::detail::precision_checker,fmt::v9::basic_format_arg<fmt::v9::basic_format_context<fmt::v9::appender,char> >,fmt::v9::detail::error_handler>(fmt::v9::basic_format_arg<fmt::v9::basic_format_context<fmt::v9::appender,char> >,fmt::v9::detail::error_handler)
FUNC 10010 bc 0 fmt::v9::detail::get_dynamic_spec<fmt::v9::detail::width_checker,fmt::v9::basic_format_arg<fmt::v9::basic_format_context<fmt::v9::appender,char> >,fmt::v9::detail::error_handler>(fmt::v9::basic_format_arg<fmt::v9::basic_format_context<fmt::v9::appender,char> >,fmt::v9::detail::error_handler)
FUNC 100d0 ce 0 fmt::v9::basic_format_args<fmt::v9::basic_format_context<fmt::v9::appender,char> >::get_id<char>(fmt::v9::basic_string_view<char>)
FUNC 101a0 7 0 fmt::v9::detail::get_iterator<char>(fmt::v9::detail::buffer<char> &)
FUNC 101b0 2a 0 fmt::v9::detail::isfinite<float,0>(float)
FUNC 101e0 2a 0 fmt::v9::detail::isfinite<double,0>(double)
FUNC 10210 2a 0 fmt::v9::detail::isfinite<long double,0>(long double)
FUNC 10240 2ea 0 void spdlog::logger::log_<std::basic_string<char,std::char_traits<char>,std::allocator<char> > const &>(struct spdlog::source_loc, spdlog::level::level_enum, class fmt::v9::basic_string_view<char>, const class std::basic_string<char,std::char_traits<char>,std::allocator<char> > & const)
FUNC 10530 20c 0 fmt::v9::detail::bigint::multiply<fmt::v9::detail::uint128_fallback,0>(fmt::v9::detail::uint128_fallback)
FUNC 10740 11c 0 fmt::v9::detail::parse_float_type_spec<fmt::v9::detail::error_handler,char>(fmt::v9::basic_format_specs<char> const &,fmt::v9::detail::error_handler &&)
FUNC 10860 2e8 0 const char * fmt::v9::detail::parse_format_specs<char,fmt::v9::detail::specs_checker<fmt::v9::detail::specs_handler<char> > &>(const char *, const char *, class fmt::v9::detail::specs_checker<fmt::v9::detail::specs_handler<char> > & const)
FUNC 10b50 1f1 0 static void fmt::v9::detail::parse_format_string<0,char,`fmt::v9::detail::vformat_to<char>'::`2'::format_handler>(class fmt::v9::basic_string_view<char>, struct fmt::v9::detail::vformat_to::__l2::format_handler *)
FUNC 10d50 293 0 const char * fmt::v9::detail::parse_precision<char,fmt::v9::detail::specs_checker<fmt::v9::detail::specs_handler<char> > &>(const char *, const char *, class fmt::v9::detail::specs_checker<fmt::v9::detail::specs_handler<char> > & const)
FUNC 10ff0 ea 0 fmt::v9::detail::parse_presentation_type<char>(char)
FUNC 110e0 2c2 0 static const char * fmt::v9::detail::parse_replacement_field<char,`fmt::v9::detail::vformat_to<char>'::`2'::format_handler &>(const char *, const char *, struct fmt::v9::detail::vformat_to::__l2::format_handler & const)
FUNC 113b0 231 0 const char * fmt::v9::detail::parse_width<char,fmt::v9::detail::specs_checker<fmt::v9::detail::specs_handler<char> > &>(const char *, const char *, class fmt::v9::detail::specs_checker<fmt::v9::detail::specs_handler<char> > & const)
FUNC 115f0 131 0 fmt::v9::detail::snprintf_float<double>(double,int,fmt::v9::detail::float_specs,fmt::v9::detail::buffer<char> &)
FUNC 11730 66 0 fmt::v9::detail::thousands_sep<char>(fmt::v9::detail::locale_ref)
FUNC 117a0 24 0 fmt::v9::detail::to_pointer<char>(fmt::v9::appender,unsigned __int64)
FUNC 117d0 ff 0 fmt::v9::detail::vformat_to<char>(fmt::v9::detail::buffer<char> &,fmt::v9::basic_string_view<char>,fmt::v9::basic_format_args<fmt::v9::basic_format_context<fmt::v9::appender,char> >,fmt::v9::detail::locale_ref)
FUNC 118d0 13a 0 fmt::v9::vformat_to<fmt::v9::appender,0>(fmt::v9::appender,fmt::v9::basic_string_view<char>,fmt::v9::basic_format_args<fmt::v9::basic_format_context<fmt::v9::appender,char> >)
FUNC 11a10 488 0 class fmt::v9::appender fmt::v9::visit_format_arg<fmt::v9::detail::arg_formatter<char> &,fmt::v9::basic_format_context<fmt::v9::appender,char> >(struct fmt::v9::detail::arg_formatter<char> & const, const class fmt::v9::basic_format_arg<fmt::v9::basic_format_context<fmt::v9::appender,char> > & const)
FUNC 11ea0 560 0 fmt::v9::visit_format_arg<fmt::v9::detail::default_arg_formatter<char>,fmt::v9::basic_format_context<fmt::v9::appender,char> >(fmt::v9::detail::default_arg_formatter<char> &&,fmt::v9::basic_format_arg<fmt::v9::basic_format_context<fmt::v9::appender,char> > const &)
FUNC 12400 7 0 fmt::v9::detail::write<char,fmt::v9::appender>(fmt::v9::appender,fmt::v9::monostate,fmt::v9::basic_format_specs<char>,fmt::v9::detail::locale_ref)
FUNC 12410 2d4 0 fmt::v9::detail::write<char,fmt::v9::appender>(fmt::v9::appender,fmt::v9::basic_string_view<char>,fmt::v9::basic_format_specs<char> const &)
FUNC 126f0 151 0 fmt::v9::detail::write<char,fmt::v9::appender,int,0>(fmt::v9::appender,int)
FUNC 12850 87 0 fmt::v9::detail::write<char,fmt::v9::appender,int,0>(fmt::v9::appender,int,fmt::v9::basic_format_specs<char> const &,fmt::v9::detail::locale_ref)
FUNC 128e0 122 0 fmt::v9::detail::write<char,fmt::v9::appender,unsigned int,0>(fmt::v9::appender,unsigned int)
FUNC 12a10 1c9 0 fmt::v9::detail::write<char,fmt::v9::appender,float,0>(fmt::v9::appender,float)
FUNC 12be0 3d3 0 fmt::v9::detail::write<char,fmt::v9::appender,float,0>(fmt::v9::appender,float,fmt::v9::basic_format_specs<char>,fmt::v9::detail::locale_ref)
FUNC 12fc0 1d3 0 fmt::v9::detail::write<char,fmt::v9::appender,double,0>(fmt::v9::appender,double)
FUNC 131a0 3c4 0 fmt::v9::detail::write<char,fmt::v9::appender,double,0>(fmt::v9::appender,double,fmt::v9::basic_format_specs<char>,fmt::v9::detail::locale_ref)
FUNC 13570 1d3 0 fmt::v9::detail::write<char,fmt::v9::appender,long double,0>(fmt::v9::appender,long double)
FUNC 13750 3c4 0 fmt::v9::detail::write<char,fmt::v9::appender,long double,0>(fmt::v9::appender,long double,fmt::v9::basic_format_specs<char>,fmt::v9::detail::locale_ref)
FUNC 13b20 62 0 fmt::v9::detail::write<char,fmt::v9::appender,void,0>(fmt::v9::appender,void const *,fmt::v9::basic_format_specs<char> const &,fmt::v9::detail::locale_ref)
FUNC 13b90 185 0 fmt::v9::detail::write<char,fmt::v9::appender,__int64,0>(fmt::v9::appender,__int64)
FUNC 13d20 13f 0 fmt::v9::detail::write<char,fmt::v9::appender,unsigned __int64,0>(fmt::v9::appender,unsigned __int64)
FUNC 13e60 f4 0 fmt::v9::detail::write<char,fmt::v9::appender,bool,0>(fmt::v9::appender,bool,fmt::v9::basic_format_specs<char> const &,fmt::v9::detail::locale_ref)
FUNC 13f60 48 0 fmt::v9::detail::write_char<char,fmt::v9::appender>(fmt::v9::appender,char,fmt::v9::basic_format_specs<char> const &)
FUNC 13fb0 d3 0 fmt::v9::detail::write_codepoint<2,char,fmt::v9::appender>(fmt::v9::appender,char,unsigned int)
FUNC 14090 8b 0 fmt::v9::detail::write_codepoint<2,char,fmt::v9::detail::counting_iterator>(fmt::v9::detail::counting_iterator,char,unsigned int)
FUNC 14120 d3 0 fmt::v9::detail::write_codepoint<4,char,fmt::v9::appender>(fmt::v9::appender,char,unsigned int)
FUNC 14200 8b 0 fmt::v9::detail::write_codepoint<4,char,fmt::v9::detail::counting_iterator>(fmt::v9::detail::counting_iterator,char,unsigned int)
FUNC 14290 f0 0 fmt::v9::detail::write_codepoint<8,char,fmt::v9::appender>(fmt::v9::appender,char,unsigned int)
FUNC 14380 46 0 fmt::v9::detail::write_codepoint<8,char,fmt::v9::detail::counting_iterator>(fmt::v9::detail::counting_iterator,char,unsigned int)
FUNC 143d0 105 0 fmt::v9::detail::write_escaped_char<char,fmt::v9::appender>(fmt::v9::appender,char)
FUNC 144e0 1c8 0 fmt::v9::detail::write_escaped_cp<fmt::v9::appender,char>(fmt::v9::appender,fmt::v9::detail::find_escape_result<char> const &)
FUNC 146b0 e0 0 fmt::v9::detail::write_escaped_cp<fmt::v9::detail::counting_iterator,char>(fmt::v9::detail::counting_iterator,fmt::v9::detail::find_escape_result<char> const &)
FUNC 14790 166 0 fmt::v9::detail::write_escaped_string<char,fmt::v9::appender>(fmt::v9::appender,fmt::v9::basic_string_view<char>)
FUNC 14900 1b0 0 fmt::v9::detail::write_escaped_string<char,fmt::v9::detail::counting_iterator>(fmt::v9::detail::counting_iterator,fmt::v9::basic_string_view<char>)
FUNC 14ab0 15b 0 fmt::v9::detail::write_exponent<char,fmt::v9::appender>(int,fmt::v9::appender)
FUNC 14c10 2b 0 fmt::v9::detail::write_float<fmt::v9::appender,fmt::v9::detail::dragonbox::decimal_fp<float>,char>(fmt::v9::appender,fmt::v9::detail::dragonbox::decimal_fp<float> const &,fmt::v9::basic_format_specs<char> const &,fmt::v9::detail::float_specs,fmt::v9::detail::locale_ref)
FUNC 14c40 2b 0 fmt::v9::detail::write_float<fmt::v9::appender,fmt::v9::detail::dragonbox::decimal_fp<double>,char>(fmt::v9::appender,fmt::v9::detail::dragonbox::decimal_fp<double> const &,fmt::v9::basic_format_specs<char> const &,fmt::v9::detail::float_specs,fmt::v9::detail::locale_ref)
FUNC 14c70 2b 0 fmt::v9::detail::write_float<fmt::v9::appender,fmt::v9::detail::big_decimal_fp,char>(fmt::v9::appender,fmt::v9::detail::big_decimal_fp const &,fmt::v9::basic_format_specs<char> const &,fmt::v9::detail::float_specs,fmt::v9::detail::locale_ref)
FUNC 14ca0 540 0 fmt::v9::detail::write_int<char,fmt::v9::appender,unsigned int>(fmt::v9::appender,fmt::v9::detail::write_int_arg<unsigned int>,fmt::v9::basic_format_specs<char> const &,fmt::v9::detail::locale_ref)
FUNC 151e0 718 0 fmt::v9::detail::write_int<char,fmt::v9::appender,unsigned __int64>(fmt::v9::appender,fmt::v9::detail::write_int_arg<unsigned __int64>,fmt::v9::basic_format_specs<char> const &,fmt::v9::detail::locale_ref)
FUNC 15900 1e0 0 fmt::v9::detail::write_int<fmt::v9::appender,char,<lambda_a0e3a8235f961a6876ae8a8727f3455e> >(fmt::v9::appender,int,unsigned int,fmt::v9::basic_format_specs<char> const &,<lambda_a0e3a8235f961a6876ae8a8727f3455e>)
FUNC 15ae0 17b 0 fmt::v9::detail::write_int_localized<fmt::v9::appender,unsigned __int64,char>(fmt::v9::appender,unsigned __int64,unsigned int,fmt::v9::basic_format_specs<char> const &,fmt::v9::detail::digit_grouping<char> const &)
FUNC 15c60 26f 0 fmt::v9::detail::write_int_localized<fmt::v9::appender,unsigned __int64,char>(fmt::v9::appender &,unsigned __int64,unsigned int,fmt::v9::basic_format_specs<char> const &,fmt::v9::detail::locale_ref)
FUNC 15ed0 9f 0 fmt::v9::detail::write_nonfinite<char,fmt::v9::appender>(fmt::v9::appender,bool,fmt::v9::basic_format_specs<char>,fmt::v9::detail::float_specs const &)
FUNC 15f70 173 0 class fmt::v9::appender fmt::v9::detail::write_padded<1,fmt::v9::appender,char,<lambda_09dfa6914bb58e44332ebc92ac922185> &>(class fmt::v9::appender, const struct fmt::v9::basic_format_specs<char> & const, unsigned __int64, unsigned __int64, class fmt::v9::detail::write_bytes::__l2::<lambda_09dfa6914bb58e44332ebc92ac922185> & const)
FUNC 160f0 283 0 class fmt::v9::appender fmt::v9::detail::write_padded<1,fmt::v9::appender,char,<lambda_b3eaa4d84de36f235122f3bbbe4feff6> &>(class fmt::v9::appender, const struct fmt::v9::basic_format_specs<char> & const, unsigned __int64, unsigned __int64, class fmt::v9::detail::write_char::__l2::<lambda_b3eaa4d84de36f235122f3bbbe4feff6> & const)
FUNC 16380 1ab 0 static class fmt::v9::appender fmt::v9::detail::write_padded<1,fmt::v9::appender,char,<lambda_f0d60ed66238794a90114102aeb5a1b4> &>(class fmt::v9::appender, const struct fmt::v9::basic_format_specs<char> & const, unsigned __int64, unsigned __int64, class fmt::v9::detail::write_nonfinite::__l2::<lambda_f0d60ed66238794a90114102aeb5a1b4> & const)
FUNC 16530 163 0 fmt::v9::detail::write_padded<1,fmt::v9::appender,char,<lambda_96e9e751ef93c20adbca8bb1f7113ff1> >(fmt::v9::appender,fmt::v9::basic_format_specs<char> const &,unsigned __int64,unsigned __int64,<lambda_96e9e751ef93c20adbca8bb1f7113ff1> &&)
FUNC 166a0 244 0 static class fmt::v9::appender fmt::v9::detail::write_padded<2,fmt::v9::appender,char,<lambda_0ca6edc684fc35c4b45207ef174d4463> &>(class fmt::v9::appender, const struct fmt::v9::basic_format_specs<char> & const, unsigned __int64, unsigned __int64, class fmt::v9::detail::do_write_float::__l30::<lambda_0ca6edc684fc35c4b45207ef174d4463> & const)
FUNC 168f0 163 0 static class fmt::v9::appender fmt::v9::detail::write_padded<2,fmt::v9::appender,char,<lambda_0fbc0216ad96246ebffbfcdd30dd8633> &>(class fmt::v9::appender, const struct fmt::v9::basic_format_specs<char> & const, unsigned __int64, unsigned __int64, class fmt::v9::detail::do_write_float::__l30::<lambda_0fbc0216ad96246ebffbfcdd30dd8633> & const)
FUNC 16a60 25b 0 static class fmt::v9::appender fmt::v9::detail::write_padded<2,fmt::v9::appender,char,<lambda_13f5d4fc3fad7c64eb2d6c58377a0e51> &>(class fmt::v9::appender, const struct fmt::v9::basic_format_specs<char> & const, unsigned __int64, unsigned __int64, class fmt::v9::detail::do_write_float::__l19::<lambda_13f5d4fc3fad7c64eb2d6c58377a0e51> & const)
FUNC 16cc0 163 0 static class fmt::v9::appender fmt::v9::detail::write_padded<2,fmt::v9::appender,char,<lambda_185b85ea2437e56b2bc2aa7cdbe52456> &>(class fmt::v9::appender, const struct fmt::v9::basic_format_specs<char> & const, unsigned __int64, unsigned __int64, class fmt::v9::detail::do_write_float::__l19::<lambda_185b85ea2437e56b2bc2aa7cdbe52456> & const)
FUNC 16e30 163 0 static class fmt::v9::appender fmt::v9::detail::write_padded<2,fmt::v9::appender,char,<lambda_282e41744f3088051fb1286cfbce3911> &>(class fmt::v9::appender, const struct fmt::v9::basic_format_specs<char> & const, unsigned __int64, unsigned __int64, class fmt::v9::detail::do_write_float::__l5::<lambda_282e41744f3088051fb1286cfbce3911> & const)
FUNC 16fa0 25b 0 static class fmt::v9::appender fmt::v9::detail::write_padded<2,fmt::v9::appender,char,<lambda_30f5bd671198ec1c919e798ee0530f7f> &>(class fmt::v9::appender, const struct fmt::v9::basic_format_specs<char> & const, unsigned __int64, unsigned __int64, class fmt::v9::detail::do_write_float::__l19::<lambda_30f5bd671198ec1c919e798ee0530f7f> & const)
FUNC 17200 20d 0 class fmt::v9::appender fmt::v9::detail::write_padded<2,fmt::v9::appender,char,<lambda_332dacfb230e19034bd184b448b63707> &>(class fmt::v9::appender, const struct fmt::v9::basic_format_specs<char> & const, unsigned __int64, unsigned __int64, class fmt::v9::detail::write_int::__l2::<lambda_332dacfb230e19034bd184b448b63707> & const)
FUNC 17410 163 0 static class fmt::v9::appender fmt::v9::detail::write_padded<2,fmt::v9::appender,char,<lambda_395fe25a59990ae20aafeccfb41739cc> &>(class fmt::v9::appender, const struct fmt::v9::basic_format_specs<char> & const, unsigned __int64, unsigned __int64, class fmt::v9::detail::do_write_float::__l5::<lambda_395fe25a59990ae20aafeccfb41739cc> & const)
FUNC 17580 244 0 static class fmt::v9::appender fmt::v9::detail::write_padded<2,fmt::v9::appender,char,<lambda_39b9acd80d3c92205299664f98c3177f> &>(class fmt::v9::appender, const struct fmt::v9::basic_format_specs<char> & const, unsigned __int64, unsigned __int64, class fmt::v9::detail::do_write_float::__l30::<lambda_39b9acd80d3c92205299664f98c3177f> & const)
FUNC 177d0 1fd 0 class fmt::v9::appender fmt::v9::detail::write_padded<2,fmt::v9::appender,char,<lambda_3c0fe6fc03d96b5203b79c46ee9e9789> &>(class fmt::v9::appender, const struct fmt::v9::basic_format_specs<char> & const, unsigned __int64, unsigned __int64, class fmt::v9::detail::write_int::__l2::<lambda_3c0fe6fc03d96b5203b79c46ee9e9789> & const)
FUNC 179d0 173 0 class fmt::v9::appender fmt::v9::detail::write_padded<2,fmt::v9::appender,char,<lambda_3ce65de4536a34dbf9ebc5ac798dd7fd> &>(class fmt::v9::appender, const struct fmt::v9::basic_format_specs<char> & const, unsigned __int64, unsigned __int64, class fmt::v9::detail::write_bytes::__l2::<lambda_3ce65de4536a34dbf9ebc5ac798dd7fd> & const)
FUNC 17b50 163 0 static class fmt::v9::appender fmt::v9::detail::write_padded<2,fmt::v9::appender,char,<lambda_43a90c16962127f962b6b0c56cc31966> &>(class fmt::v9::appender, const struct fmt::v9::basic_format_specs<char> & const, unsigned __int64, unsigned __int64, class fmt::v9::detail::do_write_float::__l30::<lambda_43a90c16962127f962b6b0c56cc31966> & const)
FUNC 17cc0 163 0 static class fmt::v9::appender fmt::v9::detail::write_padded<2,fmt::v9::appender,char,<lambda_468696d9521566528c114d51e4c9bef0> &>(class fmt::v9::appender, const struct fmt::v9::basic_format_specs<char> & const, unsigned __int64, unsigned __int64, class fmt::v9::detail::do_write_float::__l2::<lambda_468696d9521566528c114d51e4c9bef0> & const)
FUNC 17e30 163 0 static class fmt::v9::appender fmt::v9::detail::write_padded<2,fmt::v9::appender,char,<lambda_4af39d647ae3f68c9da86a2d58e65c48> &>(class fmt::v9::appender, const struct fmt::v9::basic_format_specs<char> & const, unsigned __int64, unsigned __int64, class fmt::v9::detail::do_write_float::__l30::<lambda_4af39d647ae3f68c9da86a2d58e65c48> & const)
FUNC 17fa0 1fd 0 class fmt::v9::appender fmt::v9::detail::write_padded<2,fmt::v9::appender,char,<lambda_5b77ca00064a5a0b2ff6ff6afdfc8f7b> &>(class fmt::v9::appender, const struct fmt::v9::basic_format_specs<char> & const, unsigned __int64, unsigned __int64, class fmt::v9::detail::write_int::__l2::<lambda_5b77ca00064a5a0b2ff6ff6afdfc8f7b> & const)
FUNC 181a0 163 0 static class fmt::v9::appender fmt::v9::detail::write_padded<2,fmt::v9::appender,char,<lambda_628610c82e2bc89ce172ac8638d5b184> &>(class fmt::v9::appender, const struct fmt::v9::basic_format_specs<char> & const, unsigned __int64, unsigned __int64, class fmt::v9::detail::do_write_float::__l19::<lambda_628610c82e2bc89ce172ac8638d5b184> & const)
FUNC 18310 163 0 static class fmt::v9::appender fmt::v9::detail::write_padded<2,fmt::v9::appender,char,<lambda_639c913efdddcae8c75eb0bacac0beac> &>(class fmt::v9::appender, const struct fmt::v9::basic_format_specs<char> & const, unsigned __int64, unsigned __int64, class fmt::v9::detail::do_write_float::__l2::<lambda_639c913efdddcae8c75eb0bacac0beac> & const)
FUNC 18480 163 0 static class fmt::v9::appender fmt::v9::detail::write_padded<2,fmt::v9::appender,char,<lambda_672599755fb5fa3b6c53b0a8710f05d2> &>(class fmt::v9::appender, const struct fmt::v9::basic_format_specs<char> & const, unsigned __int64, unsigned __int64, class fmt::v9::detail::do_write_float::__l5::<lambda_672599755fb5fa3b6c53b0a8710f05d2> & const)
FUNC 185f0 163 0 static class fmt::v9::appender fmt::v9::detail::write_padded<2,fmt::v9::appender,char,<lambda_6f1f005c1f6dcd7ddd0034fdf03b3617> &>(class fmt::v9::appender, const struct fmt::v9::basic_format_specs<char> & const, unsigned __int64, unsigned __int64, class fmt::v9::detail::do_write_float::__l2::<lambda_6f1f005c1f6dcd7ddd0034fdf03b3617> & const)
FUNC 18760 163 0 static class fmt::v9::appender fmt::v9::detail::write_padded<2,fmt::v9::appender,char,<lambda_752f07ab4188c11848d696ced38aff62> &>(class fmt::v9::appender, const struct fmt::v9::basic_format_specs<char> & const, unsigned __int64, unsigned __int64, class fmt::v9::detail::do_write_float::__l5::<lambda_752f07ab4188c11848d696ced38aff62> & const)
FUNC 188d0 25b 0 static class fmt::v9::appender fmt::v9::detail::write_padded<2,fmt::v9::appender,char,<lambda_7a50bb3301d712c3cfb844a011b20ed7> &>(class fmt::v9::appender, const struct fmt::v9::basic_format_specs<char> & const, unsigned __int64, unsigned __int64, class fmt::v9::detail::do_write_float::__l19::<lambda_7a50bb3301d712c3cfb844a011b20ed7> & const)
FUNC 18b30 163 0 static class fmt::v9::appender fmt::v9::detail::write_padded<2,fmt::v9::appender,char,<lambda_89a07d7e2da7b7669b3546af81775824> &>(class fmt::v9::appender, const struct fmt::v9::basic_format_specs<char> & const, unsigned __int64, unsigned __int64, class fmt::v9::detail::do_write_float::__l30::<lambda_89a07d7e2da7b7669b3546af81775824> & const)
FUNC 18ca0 163 0 static class fmt::v9::appender fmt::v9::detail::write_padded<2,fmt::v9::appender,char,<lambda_93b54d162729082e7efc8eb8e4ec70d5> &>(class fmt::v9::appender, const struct fmt::v9::basic_format_specs<char> & const, unsigned __int64, unsigned __int64, class fmt::v9::detail::do_write_float::__l5::<lambda_93b54d162729082e7efc8eb8e4ec70d5> & const)
FUNC 18e10 163 0 static class fmt::v9::appender fmt::v9::detail::write_padded<2,fmt::v9::appender,char,<lambda_95b56a90530643c4ec068630691a16eb> &>(class fmt::v9::appender, const struct fmt::v9::basic_format_specs<char> & const, unsigned __int64, unsigned __int64, class fmt::v9::detail::do_write_float::__l2::<lambda_95b56a90530643c4ec068630691a16eb> & const)
FUNC 18f80 1fd 0 class fmt::v9::appender fmt::v9::detail::write_padded<2,fmt::v9::appender,char,<lambda_98ea433f3f613b61a048899c691dcc31> &>(class fmt::v9::appender, const struct fmt::v9::basic_format_specs<char> & const, unsigned __int64, unsigned __int64, class fmt::v9::detail::write_int::__l2::<lambda_98ea433f3f613b61a048899c691dcc31> & const)
FUNC 19180 1fd 0 class fmt::v9::appender fmt::v9::detail::write_padded<2,fmt::v9::appender,char,<lambda_a183e0f00e6e703448c89e7d0b0ae666> &>(class fmt::v9::appender, const struct fmt::v9::basic_format_specs<char> & const, unsigned __int64, unsigned __int64, class fmt::v9::detail::write_int::__l2::<lambda_a183e0f00e6e703448c89e7d0b0ae666> & const)
FUNC 19380 163 0 static class fmt::v9::appender fmt::v9::detail::write_padded<2,fmt::v9::appender,char,<lambda_a255711b208076d13632284fa6a17b5e> &>(class fmt::v9::appender, const struct fmt::v9::basic_format_specs<char> & const, unsigned __int64, unsigned __int64, class fmt::v9::detail::do_write_float::__l5::<lambda_a255711b208076d13632284fa6a17b5e> & const)
FUNC 194f0 163 0 static class fmt::v9::appender fmt::v9::detail::write_padded<2,fmt::v9::appender,char,<lambda_af3c549a6db27f794c0429ed884d8ab5> &>(class fmt::v9::appender, const struct fmt::v9::basic_format_specs<char> & const, unsigned __int64, unsigned __int64, class fmt::v9::detail::do_write_float::__l2::<lambda_af3c549a6db27f794c0429ed884d8ab5> & const)
FUNC 19660 1fd 0 class fmt::v9::appender fmt::v9::detail::write_padded<2,fmt::v9::appender,char,<lambda_b5ec8a36ee462ec2f4b02ad50f94a434> &>(class fmt::v9::appender, const struct fmt::v9::basic_format_specs<char> & const, unsigned __int64, unsigned __int64, class fmt::v9::detail::write_int::__l2::<lambda_b5ec8a36ee462ec2f4b02ad50f94a434> & const)
FUNC 19860 20d 0 class fmt::v9::appender fmt::v9::detail::write_padded<2,fmt::v9::appender,char,<lambda_bf5a91f79e3ef07358be660e14f0e230> &>(class fmt::v9::appender, const struct fmt::v9::basic_format_specs<char> & const, unsigned __int64, unsigned __int64, class fmt::v9::detail::write_int::__l2::<lambda_bf5a91f79e3ef07358be660e14f0e230> & const)
FUNC 19a70 20d 0 class fmt::v9::appender fmt::v9::detail::write_padded<2,fmt::v9::appender,char,<lambda_cdc71825d7b0dd70db7deab75281151b> &>(class fmt::v9::appender, const struct fmt::v9::basic_format_specs<char> & const, unsigned __int64, unsigned __int64, class fmt::v9::detail::write_int::__l2::<lambda_cdc71825d7b0dd70db7deab75281151b> & const)
FUNC 19c80 163 0 static class fmt::v9::appender fmt::v9::detail::write_padded<2,fmt::v9::appender,char,<lambda_cec19aafe469dbf0d1f786c55ec8ccfb> &>(class fmt::v9::appender, const struct fmt::v9::basic_format_specs<char> & const, unsigned __int64, unsigned __int64, class fmt::v9::detail::do_write_float::__l2::<lambda_cec19aafe469dbf0d1f786c55ec8ccfb> & const)
FUNC 19df0 163 0 static class fmt::v9::appender fmt::v9::detail::write_padded<2,fmt::v9::appender,char,<lambda_f8d3ab787727e80257bc49bb10c2bd4d> &>(class fmt::v9::appender, const struct fmt::v9::basic_format_specs<char> & const, unsigned __int64, unsigned __int64, class fmt::v9::detail::do_write_float::__l19::<lambda_f8d3ab787727e80257bc49bb10c2bd4d> & const)
FUNC 19f60 274 0 static class fmt::v9::appender fmt::v9::detail::write_padded<2,fmt::v9::appender,char,<lambda_fa026d778d2ccf6754aee563fdd0d25a> &>(class fmt::v9::appender, const struct fmt::v9::basic_format_specs<char> & const, unsigned __int64, unsigned __int64, class fmt::v9::detail::write_ptr::__l2::<lambda_fa026d778d2ccf6754aee563fdd0d25a> & const)
FUNC 1a1e0 1cd 0 static class fmt::v9::appender fmt::v9::detail::write_padded<2,fmt::v9::appender,char,<lambda_5f923a2b9a4587d476d2d03a21dc1ae2> >(class fmt::v9::appender, const struct fmt::v9::basic_format_specs<char> & const, unsigned __int64, unsigned __int64, class fmt::v9::detail::write_int_localized::__l2::<lambda_5f923a2b9a4587d476d2d03a21dc1ae2> *)
FUNC 1a3b0 17b 0 fmt::v9::detail::write_ptr<char,fmt::v9::appender,unsigned __int64>(fmt::v9::appender,unsigned __int64,fmt::v9::basic_format_specs<char> const *)
FUNC 1a530 187 0 fmt::v9::detail::write_significand<char,unsigned int,0>(char *,unsigned int,int,int,char)
FUNC 1a6c0 1c6 0 fmt::v9::detail::write_significand<char,fmt::v9::appender,unsigned int,fmt::v9::detail::digit_grouping<char> >(fmt::v9::appender,unsigned int,int,int,fmt::v9::detail::digit_grouping<char> const &)
FUNC 1a890 aa 0 fmt::v9::detail::write_significand<char,fmt::v9::appender,unsigned int,fmt::v9::detail::fallback_digit_grouping<char> >(fmt::v9::appender,unsigned int,int,int,fmt::v9::detail::fallback_digit_grouping<char> const &)
FUNC 1a940 1c7 0 class fmt::v9::appender fmt::v9::detail::write_significand<char,fmt::v9::appender,char const *,fmt::v9::detail::digit_grouping<char> >(class fmt::v9::appender, const char *, int, int, const class fmt::v9::detail::digit_grouping<char> & const)
FUNC 1ab10 8f 0 class fmt::v9::appender fmt::v9::detail::write_significand<char,fmt::v9::appender,char const *,fmt::v9::detail::fallback_digit_grouping<char> >(class fmt::v9::appender, const char *, int, int, const class fmt::v9::detail::fallback_digit_grouping<char> & const)
FUNC 1aba0 1c6 0 fmt::v9::detail::write_significand<char,fmt::v9::appender,unsigned __int64,fmt::v9::detail::digit_grouping<char> >(fmt::v9::appender,unsigned __int64,int,int,fmt::v9::detail::digit_grouping<char> const &)
FUNC 1ad70 aa 0 fmt::v9::detail::write_significand<char,fmt::v9::appender,unsigned __int64,fmt::v9::detail::fallback_digit_grouping<char> >(fmt::v9::appender,unsigned __int64,int,int,fmt::v9::detail::fallback_digit_grouping<char> const &)
FUNC 1ae20 1e1 0 fmt::v9::detail::write_significand<char,unsigned __int64,0>(char *,unsigned __int64,int,int,char)
FUNC 1b010 99 0 fmt::v9::detail::write_significand<fmt::v9::appender,char>(fmt::v9::appender,char const *,int,int,char)
FUNC 1b0b0 189 0 fmt::v9::detail::write_significand<fmt::v9::appender,char,unsigned int,fmt::v9::detail::digit_grouping<char> >(fmt::v9::appender,unsigned int,int,int,char,fmt::v9::detail::digit_grouping<char> const &)
FUNC 1b240 49 0 fmt::v9::detail::write_significand<fmt::v9::appender,char,unsigned int,fmt::v9::detail::fallback_digit_grouping<char> >(fmt::v9::appender,unsigned int,int,int,char,fmt::v9::detail::fallback_digit_grouping<char> const &)
FUNC 1b290 1cd 0 class fmt::v9::appender fmt::v9::detail::write_significand<fmt::v9::appender,char,char const *,fmt::v9::detail::digit_grouping<char> >(class fmt::v9::appender, const char *, int, int, char, const class fmt::v9::detail::digit_grouping<char> & const)
FUNC 1b460 49 0 class fmt::v9::appender fmt::v9::detail::write_significand<fmt::v9::appender,char,char const *,fmt::v9::detail::fallback_digit_grouping<char> >(class fmt::v9::appender, const char *, int, int, char, const class fmt::v9::detail::fallback_digit_grouping<char> & const)
FUNC 1b4b0 183 0 fmt::v9::detail::write_significand<fmt::v9::appender,char,unsigned __int64,fmt::v9::detail::digit_grouping<char> >(fmt::v9::appender,unsigned __int64,int,int,char,fmt::v9::detail::digit_grouping<char> const &)
FUNC 1b640 49 0 fmt::v9::detail::write_significand<fmt::v9::appender,char,unsigned __int64,fmt::v9::detail::fallback_digit_grouping<char> >(fmt::v9::appender,unsigned __int64,int,int,char,fmt::v9::detail::fallback_digit_grouping<char> const &)
FUNC 1b690 77 0 fmt::v9::detail::write_significand<fmt::v9::appender,unsigned int,char,0>(fmt::v9::appender,unsigned int,int,int,char)
FUNC 1b710 77 0 fmt::v9::detail::write_significand<fmt::v9::appender,unsigned __int64,char,0>(fmt::v9::appender,unsigned __int64,int,int,char)
FUNC 1b790 dd 0 std::basic_string<char,std::char_traits<char>,std::allocator<char> >::basic_string<char,std::char_traits<char>,std::allocator<char> >(std::basic_string<char,std::char_traits<char>,std::allocator<char> > const &)
FUNC 1b870 3b 0 std::basic_string<char,std::char_traits<char>,std::allocator<char> >::basic_string<char,std::char_traits<char>,std::allocator<char> >(char const * const)
FUNC 1b8b0 b0 0 fmt::v9::detail::digit_grouping<char>::digit_grouping<char>(fmt::v9::detail::locale_ref,bool)
FUNC 1b960 117 0 std::unordered_map<next::sdk::logger::LOGLEVEL,std::basic_string<char,std::char_traits<char>,std::allocator<char> >,std::hash<next::sdk::logger::LOGLEVEL>,std::equal_to<next::sdk::logger::LOGLEVEL>,std::allocator<std::pair<next::sdk::logger::LOGLEVEL const ,std::basic_string<char,std::char_traits<char>,std::allocator<char> > > > >::unordered_map<next::sdk::logger::LOGLEVEL,std::basic_string<char,std::char_traits<char>,std::allocator<char> >,std::hash<next::sdk::logger::LOGLEVEL>,std::equal_to<next::sdk::logger::LOGLEVEL>,std::allocator<std::pair<next::sdk::logger::LOGLEVEL const ,std::basic_string<char,std::char_traits<char>,std::allocator<char> > > > >(std::initializer_list<std::pair<next::sdk::logger::LOGLEVEL const ,std::basic_string<char,std::char_traits<char>,std::allocator<char> > > >)
FUNC 1ba80 1bf 0 next::sdk::EcalSingleton::EcalSingleton()
FUNC 1bc40 49 0 std::bad_any_cast::bad_any_cast(std::bad_any_cast const &)
FUNC 1bc90 21 0 std::bad_any_cast::bad_any_cast()
FUNC 1bcc0 49 0 std::bad_cast::bad_cast(std::bad_cast const &)
FUNC 1bd10 3f 0 std::exception::exception(std::exception const &)
FUNC 1bd50 49 0 fmt::v9::format_error::format_error(fmt::v9::format_error const &)
FUNC 1bda0 49 0 std::runtime_error::runtime_error(std::runtime_error const &)
FUNC 1bdf0 54 0 std::runtime_error::runtime_error(char const *)
FUNC 1be50 20 0 std::_Hash<std::_Umap_traits<std::basic_string<char,std::char_traits<char>,std::allocator<char> >,next::sdk::logger::LOGLEVEL,std::_Uhash_compare<std::basic_string<char,std::char_traits<char>,std::allocator<char> >,std::hash<std::basic_string<char,std::char_traits<char>,std::allocator<char> > >,std::equal_to<std::basic_string<char,std::char_traits<char>,std::allocator<char> > > >,std::allocator<std::pair<std::basic_string<char,std::char_traits<char>,std::allocator<char> > const ,next::sdk::logger::LOGLEVEL> >,0> >::~_Hash<std::_Umap_traits<std::basic_string<char,std::char_traits<char>,std::allocator<char> >,next::sdk::logger::LOGLEVEL,std::_Uhash_compare<std::basic_string<char,std::char_traits<char>,std::allocator<char> >,std::hash<std::basic_string<char,std::char_traits<char>,std::allocator<char> > >,std::equal_to<std::basic_string<char,std::char_traits<char>,std::allocator<char> > > >,std::allocator<std::pair<std::basic_string<char,std::char_traits<char>,std::allocator<char> > const ,next::sdk::logger::LOGLEVEL> >,0> >()
FUNC 1be70 20 0 std::_Hash<std::_Umap_traits<next::sdk::logger::LOGLEVEL,std::basic_string<char,std::char_traits<char>,std::allocator<char> >,std::_Uhash_compare<next::sdk::logger::LOGLEVEL,std::hash<next::sdk::logger::LOGLEVEL>,std::equal_to<next::sdk::logger::LOGLEVEL> >,std::allocator<std::pair<next::sdk::logger::LOGLEVEL const ,std::basic_string<char,std::char_traits<char>,std::allocator<char> > > >,0> >::~_Hash<std::_Umap_traits<next::sdk::logger::LOGLEVEL,std::basic_string<char,std::char_traits<char>,std::allocator<char> >,std::_Uhash_compare<next::sdk::logger::LOGLEVEL,std::hash<next::sdk::logger::LOGLEVEL>,std::equal_to<next::sdk::logger::LOGLEVEL> >,std::allocator<std::pair<next::sdk::logger::LOGLEVEL const ,std::basic_string<char,std::char_traits<char>,std::allocator<char> > > >,0> >()
FUNC 1be90 61 0 fmt::v9::basic_memory_buffer<char,500,std::allocator<char> >::~basic_memory_buffer<char,500,std::allocator<char> >()
FUNC 1bf00 61 0 fmt::v9::basic_memory_buffer<char,250,std::allocator<char> >::~basic_memory_buffer<char,250,std::allocator<char> >()
FUNC 1bf70 65 0 fmt::v9::basic_memory_buffer<int,500,std::allocator<int> >::~basic_memory_buffer<int,500,std::allocator<int> >()
FUNC 1bfe0 65 0 fmt::v9::basic_memory_buffer<unsigned int,32,std::allocator<unsigned int> >::~basic_memory_buffer<unsigned int,32,std::allocator<unsigned int> >()
FUNC 1c050 69 0 std::basic_string<char,std::char_traits<char>,std::allocator<char> >::~basic_string<char,std::char_traits<char>,std::allocator<char> >()
FUNC 1c0c0 5 0 fmt::v9::detail::digit_grouping<char>::~digit_grouping<char>()
FUNC 1c0d0 81 0 std::list<std::pair<std::basic_string<char,std::char_traits<char>,std::allocator<char> > const ,next::sdk::logger::LOGLEVEL>,std::allocator<std::pair<std::basic_string<char,std::char_traits<char>,std::allocator<char> > const ,next::sdk::logger::LOGLEVEL> > >::~list<std::pair<std::basic_string<char,std::char_traits<char>,std::allocator<char> > const ,next::sdk::logger::LOGLEVEL>,std::allocator<std::pair<std::basic_string<char,std::char_traits<char>,std::allocator<char> > const ,next::sdk::logger::LOGLEVEL> > >()
FUNC 1c160 81 0 std::list<std::pair<next::sdk::logger::LOGLEVEL const ,std::basic_string<char,std::char_traits<char>,std::allocator<char> > >,std::allocator<std::pair<next::sdk::logger::LOGLEVEL const ,std::basic_string<char,std::char_traits<char>,std::allocator<char> > > > >::~list<std::pair<next::sdk::logger::LOGLEVEL const ,std::basic_string<char,std::char_traits<char>,std::allocator<char> > >,std::allocator<std::pair<next::sdk::logger::LOGLEVEL const ,std::basic_string<char,std::char_traits<char>,std::allocator<char> > > > >()
FUNC 1c1f0 5 0 std::pair<std::basic_string<char,std::char_traits<char>,std::allocator<char> > const ,next::sdk::logger::LOGLEVEL>::~pair<std::basic_string<char,std::char_traits<char>,std::allocator<char> > const ,next::sdk::logger::LOGLEVEL>()
FUNC 1c200 9 0 std::pair<next::sdk::logger::LOGLEVEL const ,std::basic_string<char,std::char_traits<char>,std::allocator<char> > >::~pair<next::sdk::logger::LOGLEVEL const ,std::basic_string<char,std::char_traits<char>,std::allocator<char> > >()
FUNC 1c210 5 0 fmt::v9::detail::thousands_sep_result<char>::~thousands_sep_result<char>()
FUNC 1c220 66 0 std::vector<std::_List_unchecked_iterator<std::_List_val<std::_List_simple_types<std::pair<std::basic_string<char,std::char_traits<char>,std::allocator<char> > const ,next::sdk::logger::LOGLEVEL> > > >,std::allocator<std::_List_unchecked_iterator<std::_List_val<std::_List_simple_types<std::pair<std::basic_string<char,std::char_traits<char>,std::allocator<char> > const ,next::sdk::logger::LOGLEVEL> > > > > >::~vector<std::_List_unchecked_iterator<std::_List_val<std::_List_simple_types<std::pair<std::basic_string<char,std::char_traits<char>,std::allocator<char> > const ,next::sdk::logger::LOGLEVEL> > > >,std::allocator<std::_List_unchecked_iterator<std::_List_val<std::_List_simple_types<std::pair<std::basic_string<char,std::char_traits<char>,std::allocator<char> > const ,next::sdk::logger::LOGLEVEL> > > > > >()
FUNC 1c290 66 0 std::vector<std::_List_unchecked_iterator<std::_List_val<std::_List_simple_types<std::pair<next::sdk::logger::LOGLEVEL const ,std::basic_string<char,std::char_traits<char>,std::allocator<char> > > > > >,std::allocator<std::_List_unchecked_iterator<std::_List_val<std::_List_simple_types<std::pair<next::sdk::logger::LOGLEVEL const ,std::basic_string<char,std::char_traits<char>,std::allocator<char> > > > > > > >::~vector<std::_List_unchecked_iterator<std::_List_val<std::_List_simple_types<std::pair<next::sdk::logger::LOGLEVEL const ,std::basic_string<char,std::char_traits<char>,std::allocator<char> > > > > >,std::allocator<std::_List_unchecked_iterator<std::_List_val<std::_List_simple_types<std::pair<next::sdk::logger::LOGLEVEL const ,std::basic_string<char,std::char_traits<char>,std::allocator<char> > > > > > > >()
FUNC 1c300 205 0 next::sdk::EcalSingleton::~EcalSingleton()
FUNC 1c510 26 0 std::bad_any_cast::~bad_any_cast()
FUNC 1c540 26 0 std::bad_cast::~bad_cast()
FUNC 1c570 5 0 fmt::v9::detail::bigint::~bigint()
FUNC 1c580 26 0 std::exception::~exception()
FUNC 1c5b0 26 0 fmt::v9::format_error::~format_error()
FUNC 1c5e0 26 0 std::runtime_error::~runtime_error()
FUNC 1c610 54 0 std::back_insert_iterator<fmt::v9::detail::buffer<char> >::operator=(char const &)
FUNC 1c670 4 0 next::sdk::InitChain::operator=(next::sdk::InitChain &&)
FUNC 1c680 4 0 next::sdk::InitChain::operator=(next::sdk::InitChain const &)
FUNC 1c690 7e 0 fmt::v9::detail::uint128_fallback::operator>>(int)
FUNC 1c710 7e 0 fmt::v9::detail::uint128_fallback::operator<<(int)
FUNC 1c790 8 0 fmt::v9::detail::counting_iterator::operator*()
FUNC 1c7a0 ca 0 <lambda_072489c77c35b9fc1f1da0c15e06d1cb>::operator()(fmt::v9::appender)
FUNC 1c870 12c 0 static class fmt::v9::appender <lambda_0fbc0216ad96246ebffbfcdd30dd8633>::operator()(class fmt::v9::appender)
FUNC 1c9a0 154 0 static class fmt::v9::appender <lambda_185b85ea2437e56b2bc2aa7cdbe52456>::operator()(class fmt::v9::appender)
FUNC 1cb00 c6 0 <lambda_1a53361d17aed6b5710fe202253adbec>::operator()(fmt::v9::appender)
FUNC 1cbd0 14f 0 static class fmt::v9::appender <lambda_282e41744f3088051fb1286cfbce3911>::operator()(class fmt::v9::appender)
FUNC 1cd20 12b 0 static class fmt::v9::appender <lambda_395fe25a59990ae20aafeccfb41739cc>::operator()(class fmt::v9::appender)
FUNC 1ce50 29f 0 static class fmt::v9::appender <lambda_43a90c16962127f962b6b0c56cc31966>::operator()(class fmt::v9::appender)
FUNC 1d0f0 169 0 static class fmt::v9::appender <lambda_468696d9521566528c114d51e4c9bef0>::operator()(class fmt::v9::appender)
FUNC 1d260 22b 0 static class fmt::v9::appender <lambda_4af39d647ae3f68c9da86a2d58e65c48>::operator()(class fmt::v9::appender)
FUNC 1d490 ea 0 <lambda_556dffd7dd7e3b4b9e8a3281ca587dc8>::operator()(fmt::v9::appender)
FUNC 1d580 154 0 static class fmt::v9::appender <lambda_628610c82e2bc89ce172ac8638d5b184>::operator()(class fmt::v9::appender)
FUNC 1d6e0 169 0 static class fmt::v9::appender <lambda_639c913efdddcae8c75eb0bacac0beac>::operator()(class fmt::v9::appender)
FUNC 1d850 12b 0 static class fmt::v9::appender <lambda_672599755fb5fa3b6c53b0a8710f05d2>::operator()(class fmt::v9::appender)
FUNC 1d980 169 0 static class fmt::v9::appender <lambda_6f1f005c1f6dcd7ddd0034fdf03b3617>::operator()(class fmt::v9::appender)
FUNC 1daf0 c8 0 <lambda_736cd38065f038668f47494da9fdc687>::operator()(fmt::v9::appender)
FUNC 1dbc0 12b 0 static class fmt::v9::appender <lambda_752f07ab4188c11848d696ced38aff62>::operator()(class fmt::v9::appender)
FUNC 1dcf0 22b 0 static class fmt::v9::appender <lambda_89a07d7e2da7b7669b3546af81775824>::operator()(class fmt::v9::appender)
FUNC 1df20 14f 0 static class fmt::v9::appender <lambda_93b54d162729082e7efc8eb8e4ec70d5>::operator()(class fmt::v9::appender)
FUNC 1e070 169 0 static class fmt::v9::appender <lambda_95b56a90530643c4ec068630691a16eb>::operator()(class fmt::v9::appender)
FUNC 1e1e0 1b5 0 <lambda_96e9e751ef93c20adbca8bb1f7113ff1>::operator()(fmt::v9::appender)
FUNC 1e3a0 c5 0 <lambda_a0e3a8235f961a6876ae8a8727f3455e>::operator()(fmt::v9::appender)
FUNC 1e470 12b 0 static class fmt::v9::appender <lambda_a255711b208076d13632284fa6a17b5e>::operator()(class fmt::v9::appender)
FUNC 1e5a0 15a 0 static class fmt::v9::appender <lambda_af3c549a6db27f794c0429ed884d8ab5>::operator()(class fmt::v9::appender)
FUNC 1e700 15a 0 static class fmt::v9::appender <lambda_cec19aafe469dbf0d1f786c55ec8ccfb>::operator()(class fmt::v9::appender)
FUNC 1e860 144 0 static class fmt::v9::appender <lambda_f8d3ab787727e80257bc49bb10c2bd4d>::operator()(class fmt::v9::appender)
FUNC 1e9b0 cd 0 static void `fmt::v9::detail::parse_format_string<0,char,`fmt::v9::detail::vformat_to<char>'::`2'::format_handler>'::`2'::writer::operator()(const char *, const char *)
FUNC 1ea80 bf 0 fmt::v9::detail::bigint::operator<<=(int)
FUNC 1eb40 96 0 next::sdk::EcalSingleton::`vector deleting destructor'(unsigned int)
FUNC 1ebe0 34 0 next::sdk::EcalSingleton::`scalar deleting destructor'(unsigned int)
FUNC 1ec20 4e 0 std::bad_any_cast::`scalar deleting destructor'(unsigned int)
FUNC 1ec70 4e 0 std::bad_cast::`scalar deleting destructor'(unsigned int)
FUNC 1ecc0 4e 0 std::exception::`scalar deleting destructor'(unsigned int)
FUNC 1ed10 4e 0 fmt::v9::format_error::`scalar deleting destructor'(unsigned int)
FUNC 1ed60 4e 0 std::runtime_error::`scalar deleting destructor'(unsigned int)
FUNC 1edb0 18 0 next::sdk::InitChain::IsInitialized()
FUNC 1edd0 6 0 next::sdk::InitChain::UserLevelBase()
FUNC 1ede0 4a 0 std::_List_alloc<std::_List_base_types<std::pair<std::basic_string<char,std::char_traits<char>,std::allocator<char> > const ,next::sdk::logger::LOGLEVEL>,std::allocator<std::pair<std::basic_string<char,std::char_traits<char>,std::allocator<char> > const ,next::sdk::logger::LOGLEVEL> > > >::_Buynode0(std::_List_node<std::pair<std::basic_string<char,std::char_traits<char>,std::allocator<char> > const ,next::sdk::logger::LOGLEVEL>,void *> *,std::_List_node<std::pair<std::basic_string<char,std::char_traits<char>,std::allocator<char> > const ,next::sdk::logger::LOGLEVEL>,void *> *)
FUNC 1ee30 4a 0 std::_List_alloc<std::_List_base_types<std::pair<next::sdk::logger::LOGLEVEL const ,std::basic_string<char,std::char_traits<char>,std::allocator<char> > >,std::allocator<std::pair<next::sdk::logger::LOGLEVEL const ,std::basic_string<char,std::char_traits<char>,std::allocator<char> > > > > >::_Buynode0(std::_List_node<std::pair<next::sdk::logger::LOGLEVEL const ,std::basic_string<char,std::char_traits<char>,std::allocator<char> > >,void *> *,std::_List_node<std::pair<next::sdk::logger::LOGLEVEL const ,std::basic_string<char,std::char_traits<char>,std::allocator<char> > >,void *> *)
FUNC 1ee80 16 0 class std::_Func_base<void,std::map<std::basic_string<char,std::char_traits<char>,std::allocator<char> >,std::any,std::less<std::basic_string<char,std::char_traits<char>,std::allocator<char> > >,std::allocator<std::pair<std::basic_string<char,std::char_traits<char>,std::allocator<char> > const ,std::any> > > const &,int> * std::_Func_impl_no_alloc<void (__cdecl*)(std::map<std::basic_string<char,std::char_traits<char>,std::allocator<char> >,std::any,std::less<std::basic_string<char,std::char_traits<char>,std::allocator<char> > >,std::allocator<std::pair<std::basic_string<char,std::char_traits<char>,std::allocator<char> > const ,std::any> > > const &,int),void,std::map<std::basic_string<char,std::char_traits<char>,std::allocator<char> >,std::any,std::less<std::basic_string<char,std::char_traits<char>,std::allocator<char> > >,std::allocator<std::pair<std::basic_string<char,std::char_traits<char>,std::allocator<char> > const ,std::any> > > const &,int>::_Copy(void *)
FUNC 1eea0 16 0 class std::_Func_base<bool,std::map<std::basic_string<char,std::char_traits<char>,std::allocator<char> >,std::any,std::less<std::basic_string<char,std::char_traits<char>,std::allocator<char> > >,std::allocator<std::pair<std::basic_string<char,std::char_traits<char>,std::allocator<char> > const ,std::any> > > const &,int> * std::_Func_impl_no_alloc<bool (__cdecl*)(std::map<std::basic_string<char,std::char_traits<char>,std::allocator<char> >,std::any,std::less<std::basic_string<char,std::char_traits<char>,std::allocator<char> > >,std::allocator<std::pair<std::basic_string<char,std::char_traits<char>,std::allocator<char> > const ,std::any> > > const &,int),bool,std::map<std::basic_string<char,std::char_traits<char>,std::allocator<char> >,std::any,std::less<std::basic_string<char,std::char_traits<char>,std::allocator<char> > >,std::allocator<std::pair<std::basic_string<char,std::char_traits<char>,std::allocator<char> > const ,std::any> > > const &,int>::_Copy(void *)
FUNC 1eec0 21 0 void std::_Func_impl_no_alloc<void (__cdecl*)(std::map<std::basic_string<char,std::char_traits<char>,std::allocator<char> >,std::any,std::less<std::basic_string<char,std::char_traits<char>,std::allocator<char> > >,std::allocator<std::pair<std::basic_string<char,std::char_traits<char>,std::allocator<char> > const ,std::any> > > const &,int),void,std::map<std::basic_string<char,std::char_traits<char>,std::allocator<char> >,std::any,std::less<std::basic_string<char,std::char_traits<char>,std::allocator<char> > >,std::allocator<std::pair<std::basic_string<char,std::char_traits<char>,std::allocator<char> > const ,std::any> > > const &,int>::_Delete_this(bool)
FUNC 1eef0 21 0 void std::_Func_impl_no_alloc<bool (__cdecl*)(std::map<std::basic_string<char,std::char_traits<char>,std::allocator<char> >,std::any,std::less<std::basic_string<char,std::char_traits<char>,std::allocator<char> > >,std::allocator<std::pair<std::basic_string<char,std::char_traits<char>,std::allocator<char> > const ,std::any> > > const &,int),bool,std::map<std::basic_string<char,std::char_traits<char>,std::allocator<char> >,std::any,std::less<std::basic_string<char,std::char_traits<char>,std::allocator<char> > >,std::allocator<std::pair<std::basic_string<char,std::char_traits<char>,std::allocator<char> > const ,std::any> > > const &,int>::_Delete_this(bool)
FUNC 1ef20 49 0 std::_Hash<std::_Umap_traits<std::basic_string<char,std::char_traits<char>,std::allocator<char> >,next::sdk::logger::LOGLEVEL,std::_Uhash_compare<std::basic_string<char,std::char_traits<char>,std::allocator<char> >,std::hash<std::basic_string<char,std::char_traits<char>,std::allocator<char> > >,std::equal_to<std::basic_string<char,std::char_traits<char>,std::allocator<char> > > >,std::allocator<std::pair<std::basic_string<char,std::char_traits<char>,std::allocator<char> > const ,next::sdk::logger::LOGLEVEL> >,0> >::_Destroy_if_node(std::_List_unchecked_iterator<std::_List_val<std::_List_simple_types<std::pair<std::basic_string<char,std::char_traits<char>,std::allocator<char> > const ,next::sdk::logger::LOGLEVEL> > > >)
FUNC 1ef70 49 0 std::_Hash<std::_Umap_traits<next::sdk::logger::LOGLEVEL,std::basic_string<char,std::char_traits<char>,std::allocator<char> >,std::_Uhash_compare<next::sdk::logger::LOGLEVEL,std::hash<next::sdk::logger::LOGLEVEL>,std::equal_to<next::sdk::logger::LOGLEVEL> >,std::allocator<std::pair<next::sdk::logger::LOGLEVEL const ,std::basic_string<char,std::char_traits<char>,std::allocator<char> > > >,0> >::_Destroy_if_node(std::_List_unchecked_iterator<std::_List_val<std::_List_simple_types<std::pair<next::sdk::logger::LOGLEVEL const ,std::basic_string<char,std::char_traits<char>,std::allocator<char> > > > > >)
FUNC 1efc0 10 0 void std::_Func_impl_no_alloc<void (__cdecl*)(std::map<std::basic_string<char,std::char_traits<char>,std::allocator<char> >,std::any,std::less<std::basic_string<char,std::char_traits<char>,std::allocator<char> > >,std::allocator<std::pair<std::basic_string<char,std::char_traits<char>,std::allocator<char> > const ,std::any> > > const &,int),void,std::map<std::basic_string<char,std::char_traits<char>,std::allocator<char> >,std::any,std::less<std::basic_string<char,std::char_traits<char>,std::allocator<char> > >,std::allocator<std::pair<std::basic_string<char,std::char_traits<char>,std::allocator<char> > const ,std::any> > > const &,int>::_Do_call(const class std::map<std::basic_string<char,std::char_traits<char>,std::allocator<char> >,std::any,std::less<std::basic_string<char,std::char_traits<char>,std::allocator<char> > >,std::allocator<std::pair<std::basic_string<char,std::char_traits<char>,std::allocator<char> > const ,std::any> > > & const, int *)
FUNC 1efd0 10 0 bool std::_Func_impl_no_alloc<bool (__cdecl*)(std::map<std::basic_string<char,std::char_traits<char>,std::allocator<char> >,std::any,std::less<std::basic_string<char,std::char_traits<char>,std::allocator<char> > >,std::allocator<std::pair<std::basic_string<char,std::char_traits<char>,std::allocator<char> > const ,std::any> > > const &,int),bool,std::map<std::basic_string<char,std::char_traits<char>,std::allocator<char> >,std::any,std::less<std::basic_string<char,std::char_traits<char>,std::allocator<char> > >,std::allocator<std::pair<std::basic_string<char,std::char_traits<char>,std::allocator<char> > const ,std::any> > > const &,int>::_Do_call(const class std::map<std::basic_string<char,std::char_traits<char>,std::allocator<char> >,std::any,std::less<std::basic_string<char,std::char_traits<char>,std::allocator<char> > >,std::allocator<std::pair<std::basic_string<char,std::char_traits<char>,std::allocator<char> > const ,std::any> > > & const, int *)
FUNC 1efe0 5 0 const void * std::_Func_impl_no_alloc<void (__cdecl*)(std::map<std::basic_string<char,std::char_traits<char>,std::allocator<char> >,std::any,std::less<std::basic_string<char,std::char_traits<char>,std::allocator<char> > >,std::allocator<std::pair<std::basic_string<char,std::char_traits<char>,std::allocator<char> > const ,std::any> > > const &,int),void,std::map<std::basic_string<char,std::char_traits<char>,std::allocator<char> >,std::any,std::less<std::basic_string<char,std::char_traits<char>,std::allocator<char> > >,std::allocator<std::pair<std::basic_string<char,std::char_traits<char>,std::allocator<char> > const ,std::any> > > const &,int>::_Get()
FUNC 1eff0 5 0 const void * std::_Func_impl_no_alloc<bool (__cdecl*)(std::map<std::basic_string<char,std::char_traits<char>,std::allocator<char> >,std::any,std::less<std::basic_string<char,std::char_traits<char>,std::allocator<char> > >,std::allocator<std::pair<std::basic_string<char,std::char_traits<char>,std::allocator<char> > const ,std::any> > > const &,int),bool,std::map<std::basic_string<char,std::char_traits<char>,std::allocator<char> >,std::any,std::less<std::basic_string<char,std::char_traits<char>,std::allocator<char> > >,std::allocator<std::pair<std::basic_string<char,std::char_traits<char>,std::allocator<char> > const ,std::any> > > const &,int>::_Get()
FUNC 1f000 4 0 std::_Vector_alloc<std::_Vec_base_types<std::_List_unchecked_iterator<std::_List_val<std::_List_simple_types<std::pair<std::basic_string<char,std::char_traits<char>,std::allocator<char> > const ,next::sdk::logger::LOGLEVEL> > > >,std::allocator<std::_List_unchecked_iterator<std::_List_val<std::_List_simple_types<std::pair<std::basic_string<char,std::char_traits<char>,std::allocator<char> > const ,next::sdk::logger::LOGLEVEL> > > > > > >::_Getal()
FUNC 1f010 4 0 std::_Vector_alloc<std::_Vec_base_types<std::_List_unchecked_iterator<std::_List_val<std::_List_simple_types<std::pair<next::sdk::logger::LOGLEVEL const ,std::basic_string<char,std::char_traits<char>,std::allocator<char> > > > > >,std::allocator<std::_List_unchecked_iterator<std::_List_val<std::_List_simple_types<std::pair<next::sdk::logger::LOGLEVEL const ,std::basic_string<char,std::char_traits<char>,std::allocator<char> > > > > > > > >::_Getal()
FUNC 1f020 188 0 std::_Hash<std::_Umap_traits<std::basic_string<char,std::char_traits<char>,std::allocator<char> >,next::sdk::logger::LOGLEVEL,std::_Uhash_compare<std::basic_string<char,std::char_traits<char>,std::allocator<char> >,std::hash<std::basic_string<char,std::char_traits<char>,std::allocator<char> > >,std::equal_to<std::basic_string<char,std::char_traits<char>,std::allocator<char> > > >,std::allocator<std::pair<std::basic_string<char,std::char_traits<char>,std::allocator<char> > const ,next::sdk::logger::LOGLEVEL> >,0> >::_Init(unsigned __int64)
FUNC 1f1b0 188 0 std::_Hash<std::_Umap_traits<next::sdk::logger::LOGLEVEL,std::basic_string<char,std::char_traits<char>,std::allocator<char> >,std::_Uhash_compare<next::sdk::logger::LOGLEVEL,std::hash<next::sdk::logger::LOGLEVEL>,std::equal_to<next::sdk::logger::LOGLEVEL> >,std::allocator<std::pair<next::sdk::logger::LOGLEVEL const ,std::basic_string<char,std::char_traits<char>,std::allocator<char> > > >,0> >::_Init(unsigned __int64)
FUNC 1f340 7 0 std::_Hash<std::_Umap_traits<std::basic_string<char,std::char_traits<char>,std::allocator<char> >,next::sdk::logger::LOGLEVEL,std::_Uhash_compare<std::basic_string<char,std::char_traits<char>,std::allocator<char> >,std::hash<std::basic_string<char,std::char_traits<char>,std::allocator<char> > >,std::equal_to<std::basic_string<char,std::char_traits<char>,std::allocator<char> > > >,std::allocator<std::pair<std::basic_string<char,std::char_traits<char>,std::allocator<char> > const ,next::sdk::logger::LOGLEVEL> >,0> >::_Make_iter(std::_List_unchecked_const_iterator<std::_List_val<std::_List_simple_types<std::pair<std::basic_string<char,std::char_traits<char>,std::allocator<char> > const ,next::sdk::logger::LOGLEVEL> > >,std::_Iterator_base0>)
FUNC 1f350 7 0 std::_Hash<std::_Umap_traits<next::sdk::logger::LOGLEVEL,std::basic_string<char,std::char_traits<char>,std::allocator<char> >,std::_Uhash_compare<next::sdk::logger::LOGLEVEL,std::hash<next::sdk::logger::LOGLEVEL>,std::equal_to<next::sdk::logger::LOGLEVEL> >,std::allocator<std::pair<next::sdk::logger::LOGLEVEL const ,std::basic_string<char,std::char_traits<char>,std::allocator<char> > > >,0> >::_Make_iter(std::_List_unchecked_const_iterator<std::_List_val<std::_List_simple_types<std::pair<next::sdk::logger::LOGLEVEL const ,std::basic_string<char,std::char_traits<char>,std::allocator<char> > > > >,std::_Iterator_base0>)
FUNC 1f360 16 0 class std::_Func_base<void,std::map<std::basic_string<char,std::char_traits<char>,std::allocator<char> >,std::any,std::less<std::basic_string<char,std::char_traits<char>,std::allocator<char> > >,std::allocator<std::pair<std::basic_string<char,std::char_traits<char>,std::allocator<char> > const ,std::any> > > const &,int> * std::_Func_impl_no_alloc<void (__cdecl*)(std::map<std::basic_string<char,std::char_traits<char>,std::allocator<char> >,std::any,std::less<std::basic_string<char,std::char_traits<char>,std::allocator<char> > >,std::allocator<std::pair<std::basic_string<char,std::char_traits<char>,std::allocator<char> > const ,std::any> > > const &,int),void,std::map<std::basic_string<char,std::char_traits<char>,std::allocator<char> >,std::any,std::less<std::basic_string<char,std::char_traits<char>,std::allocator<char> > >,std::allocator<std::pair<std::basic_string<char,std::char_traits<char>,std::allocator<char> > const ,std::any> > > const &,int>::_Move(void *)
FUNC 1f380 16 0 class std::_Func_base<bool,std::map<std::basic_string<char,std::char_traits<char>,std::allocator<char> >,std::any,std::less<std::basic_string<char,std::char_traits<char>,std::allocator<char> > >,std::allocator<std::pair<std::basic_string<char,std::char_traits<char>,std::allocator<char> > const ,std::any> > > const &,int> * std::_Func_impl_no_alloc<bool (__cdecl*)(std::map<std::basic_string<char,std::char_traits<char>,std::allocator<char> >,std::any,std::less<std::basic_string<char,std::char_traits<char>,std::allocator<char> > >,std::allocator<std::pair<std::basic_string<char,std::char_traits<char>,std::allocator<char> > const ,std::any> > > const &,int),bool,std::map<std::basic_string<char,std::char_traits<char>,std::allocator<char> >,std::any,std::less<std::basic_string<char,std::char_traits<char>,std::allocator<char> > >,std::allocator<std::pair<std::basic_string<char,std::char_traits<char>,std::allocator<char> > const ,std::any> > > const &,int>::_Move(void *)
FUNC 1f3a0 e4 0 std::vector<std::_List_unchecked_iterator<std::_List_val<std::_List_simple_types<std::pair<std::basic_string<char,std::char_traits<char>,std::allocator<char> > const ,next::sdk::logger::LOGLEVEL> > > >,std::allocator<std::_List_unchecked_iterator<std::_List_val<std::_List_simple_types<std::pair<std::basic_string<char,std::char_traits<char>,std::allocator<char> > const ,next::sdk::logger::LOGLEVEL> > > > > >::_Reallocate_exactly(unsigned __int64)
FUNC 1f490 e4 0 std::vector<std::_List_unchecked_iterator<std::_List_val<std::_List_simple_types<std::pair<next::sdk::logger::LOGLEVEL const ,std::basic_string<char,std::char_traits<char>,std::allocator<char> > > > > >,std::allocator<std::_List_unchecked_iterator<std::_List_val<std::_List_simple_types<std::pair<next::sdk::logger::LOGLEVEL const ,std::basic_string<char,std::char_traits<char>,std::allocator<char> > > > > > > >::_Reallocate_exactly(unsigned __int64)
FUNC 1f580 8 0 const class type_info & const std::_Func_impl_no_alloc<void (__cdecl*)(std::map<std::basic_string<char,std::char_traits<char>,std::allocator<char> >,std::any,std::less<std::basic_string<char,std::char_traits<char>,std::allocator<char> > >,std::allocator<std::pair<std::basic_string<char,std::char_traits<char>,std::allocator<char> > const ,std::any> > > const &,int),void,std::map<std::basic_string<char,std::char_traits<char>,std::allocator<char> >,std::any,std::less<std::basic_string<char,std::char_traits<char>,std::allocator<char> > >,std::allocator<std::pair<std::basic_string<char,std::char_traits<char>,std::allocator<char> > const ,std::any> > > const &,int>::_Target_type()
FUNC 1f590 8 0 const class type_info & const std::_Func_impl_no_alloc<bool (__cdecl*)(std::map<std::basic_string<char,std::char_traits<char>,std::allocator<char> >,std::any,std::less<std::basic_string<char,std::char_traits<char>,std::allocator<char> > >,std::allocator<std::pair<std::basic_string<char,std::char_traits<char>,std::allocator<char> > const ,std::any> > > const &,int),bool,std::map<std::basic_string<char,std::char_traits<char>,std::allocator<char> >,std::any,std::less<std::basic_string<char,std::char_traits<char>,std::allocator<char> > >,std::allocator<std::pair<std::basic_string<char,std::char_traits<char>,std::allocator<char> > const ,std::any> > > const &,int>::_Target_type()
FUNC 1f5a0 5f 0 std::basic_string<char,std::char_traits<char>,std::allocator<char> >::_Tidy_deallocate()
FUNC 1f600 11 0 std::basic_string<char,std::char_traits<char>,std::allocator<char> >::_Xlen()
FUNC 1f620 11 0 std::vector<std::_List_unchecked_iterator<std::_List_val<std::_List_simple_types<std::pair<std::basic_string<char,std::char_traits<char>,std::allocator<char> > const ,next::sdk::logger::LOGLEVEL> > > >,std::allocator<std::_List_unchecked_iterator<std::_List_val<std::_List_simple_types<std::pair<std::basic_string<char,std::char_traits<char>,std::allocator<char> > const ,next::sdk::logger::LOGLEVEL> > > > > >::_Xlength()
FUNC 1f640 11 0 std::vector<std::_List_unchecked_iterator<std::_List_val<std::_List_simple_types<std::pair<next::sdk::logger::LOGLEVEL const ,std::basic_string<char,std::char_traits<char>,std::allocator<char> > > > > >,std::allocator<std::_List_unchecked_iterator<std::_List_val<std::_List_simple_types<std::pair<next::sdk::logger::LOGLEVEL const ,std::basic_string<char,std::char_traits<char>,std::allocator<char> > > > > > > >::_Xlength()
FUNC 1f660 133 0 fmt::v9::detail::add_compare(fmt::v9::detail::bigint const &,fmt::v9::detail::bigint const &,fmt::v9::detail::bigint const &)
FUNC 1f7a0 b1 0 fmt::v9::detail::adjust_precision(int &,int)
FUNC 1f860 75 0 std::allocator<std::_List_unchecked_iterator<std::_List_val<std::_List_simple_types<std::pair<std::basic_string<char,std::char_traits<char>,std::allocator<char> > const ,next::sdk::logger::LOGLEVEL> > > > >::allocate(unsigned __int64)
FUNC 1f8e0 75 0 std::allocator<std::_List_unchecked_iterator<std::_List_val<std::_List_simple_types<std::pair<next::sdk::logger::LOGLEVEL const ,std::basic_string<char,std::char_traits<char>,std::allocator<char> > > > > > >::allocate(unsigned __int64)
FUNC 1f960 150 0 std::basic_string<char,std::char_traits<char>,std::allocator<char> >::assign(char const * const,unsigned __int64)
FUNC 1fab0 10f 0 fmt::v9::detail::bigint::assign_pow10(int)
FUNC 1fbc0 c 0 next::sdk::EcalSingleton::clear()
FUNC 1fbd0 95 0 fmt::v9::detail::compare(fmt::v9::detail::bigint const &,fmt::v9::detail::bigint const &)
FUNC 1fc70 a2 0 fmt::v9::detail::digit_grouping<char>::count_separators(int)
FUNC 1fd20 3f 0 void std::allocator<std::_List_node<std::pair<std::basic_string<char,std::char_traits<char>,std::allocator<char> > const ,enum next::sdk::logger::LOGLEVEL>,void *> >::deallocate(struct std::_List_node<std::pair<std::basic_string<char,std::char_traits<char>,std::allocator<char> > const ,enum next::sdk::logger::LOGLEVEL>,void *> *, const unsigned __int64)
FUNC 1fd60 3f 0 void std::allocator<std::_List_node<std::pair<enum next::sdk::logger::LOGLEVEL const ,std::basic_string<char,std::char_traits<char>,std::allocator<char> > >,void *> >::deallocate(struct std::_List_node<std::pair<enum next::sdk::logger::LOGLEVEL const ,std::basic_string<char,std::char_traits<char>,std::allocator<char> > >,void *> *, const unsigned __int64)
FUNC 1fda0 43 0 std::allocator<std::_List_unchecked_iterator<std::_List_val<std::_List_simple_types<std::pair<std::basic_string<char,std::char_traits<char>,std::allocator<char> > const ,next::sdk::logger::LOGLEVEL> > > > >::deallocate(std::_List_unchecked_iterator<std::_List_val<std::_List_simple_types<std::pair<std::basic_string<char,std::char_traits<char>,std::allocator<char> > const ,next::sdk::logger::LOGLEVEL> > > > * const,unsigned __int64)
FUNC 1fdf0 43 0 std::allocator<std::_List_unchecked_iterator<std::_List_val<std::_List_simple_types<std::pair<next::sdk::logger::LOGLEVEL const ,std::basic_string<char,std::char_traits<char>,std::allocator<char> > > > > > >::deallocate(std::_List_unchecked_iterator<std::_List_val<std::_List_simple_types<std::pair<next::sdk::logger::LOGLEVEL const ,std::basic_string<char,std::char_traits<char>,std::allocator<char> > > > > > * const,unsigned __int64)
FUNC 1fe40 1a5 0 fmt::v9::detail::bigint::divmod_assign(fmt::v9::detail::bigint const &)
FUNC 1fff0 988 0 next::sdk::EcalSingleton::do_init(std::map<std::basic_string<char,std::char_traits<char>,std::allocator<char> >,std::any,std::less<std::basic_string<char,std::char_traits<char>,std::allocator<char> > >,std::allocator<std::pair<std::basic_string<char,std::char_traits<char>,std::allocator<char> > const ,std::any> > > const &,int)
FUNC 20980 5d 0 next::sdk::EcalSingleton::do_reset(std::map<std::basic_string<char,std::char_traits<char>,std::allocator<char> >,std::any,std::less<std::basic_string<char,std::char_traits<char>,std::allocator<char> > >,std::allocator<std::pair<std::basic_string<char,std::char_traits<char>,std::allocator<char> > const ,std::any> > > const &,int)
FUNC 209e0 8 0 fmt::v9::basic_format_context<fmt::v9::appender,char>::error_handler()
FUNC 209f0 10b2 0 fmt::v9::detail::format_dragon(fmt::v9::detail::basic_fp<fmt::v9::detail::uint128_fallback>,unsigned int,int,fmt::v9::detail::buffer<char> &,int &)
FUNC 21ab0 8 0 next::sdk::EcalSingleton::getInstancenameCfgKey()
FUNC 21ac0 38 0 next::sdk::EcalSingleton::get_instance()
FUNC 21b00 484 0 fmt::v9::detail::grisu_gen_digits(fmt::v9::detail::basic_fp<unsigned __int64>,unsigned __int64,int &,fmt::v9::detail::gen_digits_handler &)
FUNC 21f90 f2 0 fmt::v9::basic_memory_buffer<char,500,std::allocator<char> >::grow(unsigned __int64)
FUNC 22090 f2 0 fmt::v9::basic_memory_buffer<char,250,std::allocator<char> >::grow(unsigned __int64)
FUNC 22190 128 0 fmt::v9::basic_memory_buffer<int,500,std::allocator<int> >::grow(unsigned __int64)
FUNC 222c0 128 0 fmt::v9::basic_memory_buffer<unsigned int,32,std::allocator<unsigned int> >::grow(unsigned __int64)
FUNC 223f0 c 0 next::sdk::EcalSingleton::init_done()
FUNC 22400 18 0 fmt::v9::detail::digit_grouping<char>::initial_state()
FUNC 22420 d2 0 static void `fmt::v9::detail::vformat_to<char>'::`2'::format_handler::on_replacement_field(int, const char *)
FUNC 22500 7b 0 fmt::v9::detail::specs_checker<fmt::v9::detail::specs_handler<char> >::on_sign(fmt::v9::sign::type)
FUNC 22580 d3 0 next::sdk::EcalSingleton::register_to_init_chain()
FUNC 22660 2f9 0 fmt::v9::detail::bigint::square()
FUNC 22960 38 0 fmt::v9::detail::buffer<char>::try_resize(unsigned __int64)
FUNC 229a0 170 0 fmt::v9::detail::utf8_decode(char const *,unsigned int *,int *)
FUNC 22b10 8 0 std::bad_any_cast::what()
FUNC 22b20 13 0 std::exception::what()
FUNC 22b40 4 0 next::sdk::events::BaseEventBinaryImpl::operator=(next::sdk::events::BaseEventBinaryImpl &&)
FUNC 22b50 4 0 next::sdk::events::BaseEventBinaryImpl::operator=(next::sdk::events::BaseEventBinaryImpl const &)
FUNC 22b60 95 0 next::sdk::events::BaseEventBinaryImpl::call(std::basic_string<char,std::char_traits<char>,std::allocator<char> >,std::basic_string<char,std::char_traits<char>,std::allocator<char> >,std::vector<unsigned char,std::allocator<unsigned char> > const &,next::sdk::events::RegisteredEvent const &,std::list<std::basic_string<char,std::char_traits<char>,std::allocator<char> >,std::allocator<std::basic_string<char,std::char_traits<char>,std::allocator<char> > > > &)
FUNC 22c00 7d 0 next::sdk::events::BaseEventBinaryImpl::getNumberOfSubscribers(std::basic_string<char,std::char_traits<char>,std::allocator<char> >,std::basic_string<char,std::char_traits<char>,std::allocator<char> >)
FUNC 22c80 3d 0 next::sdk::events::BaseEventBinaryImpl::initializeBinaryEvent(std::basic_string<char,std::char_traits<char>,std::allocator<char> > const &,std::basic_string<char,std::char_traits<char>,std::allocator<char> > const &,next::sdk::events::RegisteredEvent const &)
FUNC 22cc0 3d 0 next::sdk::events::BaseEventBinaryImpl::initializeBinaryEventBlocking(std::basic_string<char,std::char_traits<char>,std::allocator<char> > const &,std::basic_string<char,std::char_traits<char>,std::allocator<char> > const &,next::sdk::events::RegisteredEvent const &)
FUNC 22d00 75 0 next::sdk::events::BaseEventBinaryImpl::listen(std::basic_string<char,std::char_traits<char>,std::allocator<char> >,std::basic_string<char,std::char_traits<char>,std::allocator<char> >,next::sdk::events::RegisteredEvent const &)
FUNC 22d80 3d 0 next::sdk::events::BaseEventBinaryImpl::publish(std::basic_string<char,std::char_traits<char>,std::allocator<char> > const &,std::basic_string<char,std::char_traits<char>,std::allocator<char> > const &,std::vector<unsigned char,std::allocator<unsigned char> > const &,next::sdk::events::RegisteredEvent const &,std::list<std::basic_string<char,std::char_traits<char>,std::allocator<char> >,std::allocator<std::basic_string<char,std::char_traits<char>,std::allocator<char> > > > &)
FUNC 22dc0 3d 0 next::sdk::events::BaseEventBinaryImpl::requestEventUpdate(std::basic_string<char,std::char_traits<char>,std::allocator<char> > const &,std::basic_string<char,std::char_traits<char>,std::allocator<char> > const &,std::vector<unsigned char,std::allocator<unsigned char> > const &,next::sdk::events::RegisteredEvent const &,std::list<std::basic_string<char,std::char_traits<char>,std::allocator<char> >,std::allocator<std::basic_string<char,std::char_traits<char>,std::allocator<char> > > > &)
FUNC 22e00 3d 0 next::sdk::events::BaseEventBinaryImpl::subscribe(std::basic_string<char,std::char_traits<char>,std::allocator<char> > const &,std::basic_string<char,std::char_traits<char>,std::allocator<char> > const &,next::sdk::events::RegisteredEvent const &)
FUNC 22e40 75 0 next::sdk::events::BaseEventBinaryImpl::unregister(std::basic_string<char,std::char_traits<char>,std::allocator<char> >,std::basic_string<char,std::char_traits<char>,std::allocator<char> >,next::sdk::events::RegisteredEvent const &)
FUNC 22ec0 be 0 void std::_Tree<std::_Tmap_traits<unsigned __int64,std::function<void __cdecl(std::basic_string<char,std::char_traits<char>,std::allocator<char> >)>,std::less<unsigned __int64>,std::allocator<std::pair<unsigned __int64 const ,std::function<void __cdecl(std::basic_string<char,std::char_traits<char>,std::allocator<char> >)> > >,0> >::_Tree<std::_Tmap_traits<unsigned __int64,std::function<void __cdecl(std::basic_string<char,std::char_traits<char>,std::allocator<char> >)>,std::less<unsigned __int64>,std::allocator<std::pair<unsigned __int64 const ,std::function<void __cdecl(std::basic_string<char,std::char_traits<char>,std::allocator<char> >)> > >,0> ><std::allocator<std::_Tree_node<std::pair<unsigned __int64 const ,std::function<void __cdecl(std::basic_string<char,std::char_traits<char>,std::allocator<char> >)> >,void *> > >(const class std::_Tree<std::_Tmap_traits<unsigned __int64,std::function<void __cdecl(std::basic_string<char,std::char_traits<char>,std::allocator<char> >)>,std::less<unsigned __int64>,std::allocator<std::pair<unsigned __int64 const ,std::function<void __cdecl(std::basic_string<char,std::char_traits<char>,std::allocator<char> >)> > >,0> > & const, class std::allocator<std::_Tree_node<std::pair<unsigned __int64 const ,std::function<void __cdecl(std::basic_string<char,std::char_traits<char>,std::allocator<char> >)> >,void *> > *)
FUNC 22f80 b1 0 std::operator+<char,std::char_traits<char>,std::allocator<char> >(std::basic_string<char,std::char_traits<char>,std::allocator<char> > const &,char const * const)
FUNC 23040 63 0 struct std::_Tree_node<std::pair<unsigned __int64 const ,std::function<void __cdecl(std::basic_string<char,std::char_traits<char>,std::allocator<char> >)> >,void *> * std::_Tree_comp_alloc<std::_Tmap_traits<unsigned __int64,std::function<void __cdecl(std::basic_string<char,std::char_traits<char>,std::allocator<char> >)>,std::less<unsigned __int64>,std::allocator<std::pair<unsigned __int64 const ,std::function<void __cdecl(std::basic_string<char,std::char_traits<char>,std::allocator<char> >)> > >,0> >::_Buynode<std::pair<unsigned __int64 const ,std::function<void __cdecl(std::basic_string<char,std::char_traits<char>,std::allocator<char> >)> > &>(struct std::pair<unsigned __int64 const ,std::function<void __cdecl(std::basic_string<char,std::char_traits<char>,std::allocator<char> >)> > & const)
FUNC 230b0 43 0 struct std::_List_node<std::basic_string<char,std::char_traits<char>,std::allocator<char> >,void *> * std::_List_buy<std::basic_string<char,std::char_traits<char>,std::allocator<char> >,std::allocator<std::basic_string<char,std::char_traits<char>,std::allocator<char> > > >::_Buynode<std::basic_string<char,std::char_traits<char>,std::allocator<char> > const &>(struct std::_List_node<std::basic_string<char,std::char_traits<char>,std::allocator<char> >,void *> *, struct std::_List_node<std::basic_string<char,std::char_traits<char>,std::allocator<char> >,void *> *, const class std::basic_string<char,std::char_traits<char>,std::allocator<char> > & const)
FUNC 23100 90 0 std::_Tree_comp_alloc<std::_Tmap_traits<unsigned __int64,std::function<void >,std::less<unsigned __int64>,std::allocator<std::pair<unsigned __int64 const ,std::function<void > > >,0> >::_Buynode<std::pair<unsigned __int64 const ,std::function<void > > >(std::pair<unsigned __int64 const ,std::function<void > > &&)
FUNC 23190 82 0 void std::basic_string<char,std::char_traits<char>,std::allocator<char> >::_Construct<unsigned char const *>(const unsigned char *, const unsigned char *, struct std::input_iterator_tag)
FUNC 23220 9b 0 std::_Tree<std::_Tmap_traits<unsigned __int64,std::function<void >,std::less<unsigned __int64>,std::allocator<std::pair<unsigned __int64 const ,std::function<void > > >,0> >::_Copy_nodes<std::_Tree<std::_Tmap_traits<unsigned __int64,std::function<void >,std::less<unsigned __int64>,std::allocator<std::pair<unsigned __int64 const ,std::function<void > > >,0> >::_Copy_tag>(std::_Tree_node<std::pair<unsigned __int64 const ,std::function<void > >,void *> *,std::_Tree_node<std::pair<unsigned __int64 const ,std::function<void > >,void *> *,std::_Tree<std::_Tmap_traits<unsigned __int64,std::function<void >,std::less<unsigned __int64>,std::allocator<std::pair<unsigned __int64 const ,std::function<void > > >,0> >::_Copy_tag)
FUNC 232c0 3 0 std::_Enable_shared_from_this1<eCAL::CServiceClient,eCAL::CServiceClient>(std::shared_ptr<eCAL::CServiceClient> const &,eCAL::CServiceClient *,std::integral_constant<bool,0>)
FUNC 232d0 3 0 std::_Enable_shared_from_this<eCAL::CServiceClient,eCAL::CServiceClient>(std::shared_ptr<eCAL::CServiceClient> const &,eCAL::CServiceClient *)
FUNC 232e0 290 0 std::_Tree<std::_Tmap_traits<unsigned __int64,std::function<void >,std::less<unsigned __int64>,std::allocator<std::pair<unsigned __int64 const ,std::function<void > > >,0> >::_Insert_at<std::pair<unsigned __int64 const ,std::function<void > >,std::_Not_a_node_tag>(bool,std::_Tree_node<std::pair<unsigned __int64 const ,std::function<void > >,void *> *,std::pair<unsigned __int64 const ,std::function<void > > &&,std::_Not_a_node_tag)
FUNC 23570 15b 0 std::_Tree<std::_Tmap_traits<unsigned __int64,std::function<void >,std::less<unsigned __int64>,std::allocator<std::pair<unsigned __int64 const ,std::function<void > > >,0> >::_Insert_nohint<std::pair<unsigned __int64 const ,std::function<void > >,std::_Not_a_node_tag>(bool,std::pair<unsigned __int64 const ,std::function<void > > &&,std::_Not_a_node_tag)
FUNC 236d0 159 0 std::basic_string<char,std::char_traits<char>,std::allocator<char> >::_Reallocate_grow_by<<lambda_319d5e083f45f90dcdce5dce53cbb275>,char>(unsigned __int64,<lambda_319d5e083f45f90dcdce5dce53cbb275>,char)
FUNC 23830 17a 0 class std::basic_string<char,std::char_traits<char>,std::allocator<char> > & const std::basic_string<char,std::char_traits<char>,std::allocator<char> >::_Reallocate_grow_by<<lambda_65e615be2a453ca0576c979606f46740>,char const *,unsigned __int64>(const unsigned __int64, class std::basic_string<char,std::char_traits<char>,std::allocator<char> >::append::__l2::<lambda_65e615be2a453ca0576c979606f46740>, const char *, unsigned __int64)
FUNC 239b0 d0 0 next::sdk::events::EventClient::EventClient()
FUNC 23a80 de 0 next::sdk::events::EventTypesHookHelper<eCAL::CServiceClient>::~EventTypesHookHelper<eCAL::CServiceClient>()
FUNC 23b60 2c 0 std::_Func_class<void,std::basic_string<char,std::char_traits<char>,std::allocator<char> > >::~_Func_class<void,std::basic_string<char,std::char_traits<char>,std::allocator<char> > >()
FUNC 23b90 20 0 std::_Tree_comp_alloc<std::_Tmap_traits<unsigned __int64,std::function<void >,std::less<unsigned __int64>,std::allocator<std::pair<unsigned __int64 const ,std::function<void > > >,0> >::~_Tree_comp_alloc<std::_Tmap_traits<unsigned __int64,std::function<void >,std::less<unsigned __int64>,std::allocator<std::pair<unsigned __int64 const ,std::function<void > > >,0> >()
FUNC 23bb0 27 0 std::lock_guard<std::mutex>::~lock_guard<std::mutex>()
FUNC 23be0 27 0 std::lock_guard<std::recursive_mutex>::~lock_guard<std::recursive_mutex>()
FUNC 23c10 2c 0 void std::map<unsigned __int64,std::function<void __cdecl(std::vector<unsigned char,std::allocator<unsigned char> > const &,std::basic_string<char,std::char_traits<char>,std::allocator<char> > &)>,std::less<unsigned __int64>,std::allocator<std::pair<unsigned __int64 const ,std::function<void __cdecl(std::vector<unsigned char,std::allocator<unsigned char> > const &,std::basic_string<char,std::char_traits<char>,std::allocator<char> > &)> > > >::~map<unsigned __int64,std::function<void __cdecl(std::vector<unsigned char,std::allocator<unsigned char> > const &,std::basic_string<char,std::char_traits<char>,std::allocator<char> > &)>,std::less<unsigned __int64>,std::allocator<std::pair<unsigned __int64 const ,std::function<void __cdecl(std::vector<unsigned char,std::allocator<unsigned char> > const &,std::basic_string<char,std::char_traits<char>,std::allocator<char> > &)> > > >()
FUNC 23c40 2c 0 void std::map<unsigned __int64,std::function<void __cdecl(std::vector<unsigned char,std::allocator<unsigned char> > const &,__int64,__int64)>,std::less<unsigned __int64>,std::allocator<std::pair<unsigned __int64 const ,std::function<void __cdecl(std::vector<unsigned char,std::allocator<unsigned char> > const &,__int64,__int64)> > > >::~map<unsigned __int64,std::function<void __cdecl(std::vector<unsigned char,std::allocator<unsigned char> > const &,__int64,__int64)>,std::less<unsigned __int64>,std::allocator<std::pair<unsigned __int64 const ,std::function<void __cdecl(std::vector<unsigned char,std::allocator<unsigned char> > const &,__int64,__int64)> > > >()
FUNC 23c70 2c 0 std::map<unsigned __int64,std::function<void >,std::less<unsigned __int64>,std::allocator<std::pair<unsigned __int64 const ,std::function<void > > > >::~map<unsigned __int64,std::function<void >,std::less<unsigned __int64>,std::allocator<std::pair<unsigned __int64 const ,std::function<void > > > >()
FUNC 23ca0 2d 0 std::pair<unsigned __int64 const ,std::function<void > >::~pair<unsigned __int64 const ,std::function<void > >()
FUNC 23cd0 4b 0 std::shared_ptr<eCAL::CServiceClient>::~shared_ptr<eCAL::CServiceClient>()
FUNC 23d20 fb 0 std::vector<eCAL::SServiceResponse,std::allocator<eCAL::SServiceResponse> >::~vector<eCAL::SServiceResponse,std::allocator<eCAL::SServiceResponse> >()
FUNC 23e20 37 0 next::sdk::events::EventClient::~EventClient()
FUNC 23e60 49 0 eCAL::SServiceResponse::~SServiceResponse()
FUNC 23eb0 3 0 std::_Ref_count_base::~_Ref_count_base()
FUNC 23ec0 18 0 std::mutex::~mutex()
FUNC 23ee0 18 0 std::recursive_mutex::~recursive_mutex()
FUNC 23f00 34 0 next::sdk::events::EventTypesHookHelper<eCAL::CServiceClient>::`scalar deleting destructor'(unsigned int)
FUNC 23f40 21 0 std::_Ref_count_obj<eCAL::CServiceClient>::`scalar deleting destructor'(unsigned int)
FUNC 23f70 5b 0 next::sdk::events::EventClient::`scalar deleting destructor'(unsigned int)
FUNC 23fd0 27a 0 next::sdk::events::EventClient::AddClient(std::basic_string<char,std::char_traits<char>,std::allocator<char> > const &,std::basic_string<char,std::char_traits<char>,std::allocator<char> > const &)
FUNC 24250 108 0 next::sdk::events::EventTypesHookHelper<eCAL::CServiceClient>::AddSubscriberAddedHook(next::sdk::events::RegisteredEvent const &)
FUNC 24360 114 0 next::sdk::events::EventTypesHookHelper<eCAL::CServiceClient>::CheckHooksAdded(next::sdk::events::RegisteredEvent const &)
FUNC 24480 6c 0 next::sdk::events::EventClient::DestroyEcalType(std::shared_ptr<eCAL::CServiceClient>)
FUNC 244f0 69 0 std::basic_string<char,std::char_traits<char>,std::allocator<char> >::_Become_small()
FUNC 24560 37 0 struct std::_Tree_node<std::pair<unsigned __int64 const ,std::function<void __cdecl(std::vector<unsigned char,std::allocator<unsigned char> > const &,std::basic_string<char,std::char_traits<char>,std::allocator<char> > &)> >,void *> * std::_Tree_comp_alloc<std::_Tmap_traits<unsigned __int64,std::function<void __cdecl(std::vector<unsigned char,std::allocator<unsigned char> > const &,std::basic_string<char,std::char_traits<char>,std::allocator<char> > &)>,std::less<unsigned __int64>,std::allocator<std::pair<unsigned __int64 const ,std::function<void __cdecl(std::vector<unsigned char,std::allocator<unsigned char> > const &,std::basic_string<char,std::char_traits<char>,std::allocator<char> > &)> > >,0> >::_Buyheadnode()
FUNC 245a0 37 0 struct std::_Tree_node<std::pair<unsigned __int64 const ,std::function<void __cdecl(std::vector<unsigned char,std::allocator<unsigned char> > const &,__int64,__int64)> >,void *> * std::_Tree_comp_alloc<std::_Tmap_traits<unsigned __int64,std::function<void __cdecl(std::vector<unsigned char,std::allocator<unsigned char> > const &,__int64,__int64)>,std::less<unsigned __int64>,std::allocator<std::pair<unsigned __int64 const ,std::function<void __cdecl(std::vector<unsigned char,std::allocator<unsigned char> > const &,__int64,__int64)> > >,0> >::_Buyheadnode()
FUNC 245e0 37 0 std::_Tree_comp_alloc<std::_Tmap_traits<unsigned __int64,std::function<void >,std::less<unsigned __int64>,std::allocator<std::pair<unsigned __int64 const ,std::function<void > > >,0> >::_Buyheadnode()
FUNC 24620 4a 0 std::_List_alloc<std::_List_base_types<std::basic_string<char,std::char_traits<char>,std::allocator<char> >,std::allocator<std::basic_string<char,std::char_traits<char>,std::allocator<char> > > > >::_Buynode0(std::_List_node<std::basic_string<char,std::char_traits<char>,std::allocator<char> >,void *> *,std::_List_node<std::basic_string<char,std::char_traits<char>,std::allocator<char> >,void *> *)
FUNC 24670 3f 0 std::_Tree_comp_alloc<std::_Tmap_traits<unsigned __int64,std::function<void >,std::less<unsigned __int64>,std::allocator<std::pair<unsigned __int64 const ,std::function<void > > >,0> >::_Buynode0()
FUNC 246b0 2c 0 class std::_Func_base<void,char const *,eCAL::SClientEventCallbackData const *> * std::_Func_impl_no_alloc<std::_Binder<std::_Unforced,void (__cdecl next::sdk::events::EventClient::*)(char const *,eCAL::SClientEventCallbackData const *),next::sdk::events::EventClient *,std::_Ph<1> const &,std::_Ph<2> const &>,void,char const *,eCAL::SClientEventCallbackData const *>::_Copy(void *)
FUNC 246e0 21 0 void std::_Func_impl_no_alloc<std::_Binder<std::_Unforced,void (__cdecl next::sdk::events::EventClient::*)(char const *,eCAL::SClientEventCallbackData const *),next::sdk::events::EventClient *,std::_Ph<1> const &,std::_Ph<2> const &>,void,char const *,eCAL::SClientEventCallbackData const *>::_Delete_this(bool)
FUNC 24710 12 0 std::_Ref_count_obj<eCAL::CServiceClient>::_Delete_this()
FUNC 24730 d 0 std::_Ref_count_obj<eCAL::CServiceClient>::_Destroy()
FUNC 24740 11 0 void std::_Func_impl_no_alloc<std::_Binder<std::_Unforced,void (__cdecl next::sdk::events::EventClient::*)(char const *,eCAL::SClientEventCallbackData const *),next::sdk::events::EventClient *,std::_Ph<1> const &,std::_Ph<2> const &>,void,char const *,eCAL::SClientEventCallbackData const *>::_Do_call(const char * *, const struct eCAL::SClientEventCallbackData * *)
FUNC 24760 9e 0 void std::_Tree<std::_Tmap_traits<unsigned __int64,std::function<void __cdecl(std::vector<unsigned char,std::allocator<unsigned char> > const &,std::basic_string<char,std::char_traits<char>,std::allocator<char> > &)>,std::less<unsigned __int64>,std::allocator<std::pair<unsigned __int64 const ,std::function<void __cdecl(std::vector<unsigned char,std::allocator<unsigned char> > const &,std::basic_string<char,std::char_traits<char>,std::allocator<char> > &)> > >,0> >::_Erase(struct std::_Tree_node<std::pair<unsigned __int64 const ,std::function<void __cdecl(std::vector<unsigned char,std::allocator<unsigned char> > const &,std::basic_string<char,std::char_traits<char>,std::allocator<char> > &)> >,void *> *)
FUNC 24800 9e 0 void std::_Tree<std::_Tmap_traits<unsigned __int64,std::function<void __cdecl(std::vector<unsigned char,std::allocator<unsigned char> > const &,__int64,__int64)>,std::less<unsigned __int64>,std::allocator<std::pair<unsigned __int64 const ,std::function<void __cdecl(std::vector<unsigned char,std::allocator<unsigned char> > const &,__int64,__int64)> > >,0> >::_Erase(struct std::_Tree_node<std::pair<unsigned __int64 const ,std::function<void __cdecl(std::vector<unsigned char,std::allocator<unsigned char> > const &,__int64,__int64)> >,void *> *)
FUNC 248a0 9e 0 std::_Tree<std::_Tmap_traits<unsigned __int64,std::function<void >,std::less<unsigned __int64>,std::allocator<std::pair<unsigned __int64 const ,std::function<void > > >,0> >::_Erase(std::_Tree_node<std::pair<unsigned __int64 const ,std::function<void > >,void *> *)
FUNC 24940 20 0 std::_Tree_comp_alloc<std::_Tmap_traits<unsigned __int64,std::function<void >,std::less<unsigned __int64>,std::allocator<std::pair<unsigned __int64 const ,std::function<void > > >,0> >::_Freenode0(std::_Tree_node<std::pair<unsigned __int64 const ,std::function<void > >,void *> *)
FUNC 24960 5 0 const void * std::_Func_impl_no_alloc<std::_Binder<std::_Unforced,void (__cdecl next::sdk::events::EventClient::*)(char const *,eCAL::SClientEventCallbackData const *),next::sdk::events::EventClient *,std::_Ph<1> const &,std::_Ph<2> const &>,void,char const *,eCAL::SClientEventCallbackData const *>::_Get()
FUNC 24970 3 0 std::_Ref_count_base::_Get_deleter(type_info const &)
FUNC 24980 2c 0 class std::_Func_base<void,char const *,eCAL::SClientEventCallbackData const *> * std::_Func_impl_no_alloc<std::_Binder<std::_Unforced,void (__cdecl next::sdk::events::EventClient::*)(char const *,eCAL::SClientEventCallbackData const *),next::sdk::events::EventClient *,std::_Ph<1> const &,std::_Ph<2> const &>,void,char const *,eCAL::SClientEventCallbackData const *>::_Move(void *)
FUNC 249b0 59 0 std::_Tree_val<std::_Tree_simple_types<std::pair<unsigned __int64 const ,std::function<void > > > >::_Rrotate(std::_Tree_node<std::pair<unsigned __int64 const ,std::function<void > >,void *> *)
FUNC 24a10 8 0 const class type_info & const std::_Func_impl_no_alloc<std::_Binder<std::_Unforced,void (__cdecl next::sdk::events::EventClient::*)(char const *,eCAL::SClientEventCallbackData const *),next::sdk::events::EventClient *,std::_Ph<1> const &,std::_Ph<2> const &>,void,char const *,eCAL::SClientEventCallbackData const *>::_Target_type()
FUNC 24a20 16 0 std::_Tree<std::_Tmap_traits<unsigned __int64,std::function<void >,std::less<unsigned __int64>,std::allocator<std::pair<unsigned __int64 const ,std::function<void > > >,0> >::_Tidy()
FUNC 24a40 83 0 std::basic_string<char,std::char_traits<char>,std::allocator<char> >::append(char const * const,unsigned __int64)
FUNC 24ad0 4aa 0 next::sdk::events::EventClient::call(std::basic_string<char,std::char_traits<char>,std::allocator<char> > const &,std::basic_string<char,std::char_traits<char>,std::allocator<char> > const &,std::vector<unsigned char,std::allocator<unsigned char> > const &,next::sdk::events::RegisteredEvent const &,std::list<std::basic_string<char,std::char_traits<char>,std::allocator<char> >,std::allocator<std::basic_string<char,std::char_traits<char>,std::allocator<char> > > > &)
FUNC 24f80 4b 0 void std::_Tree<std::_Tmap_traits<unsigned __int64,std::function<void __cdecl(std::vector<unsigned char,std::allocator<unsigned char> > const &,std::basic_string<char,std::char_traits<char>,std::allocator<char> > &)>,std::less<unsigned __int64>,std::allocator<std::pair<unsigned __int64 const ,std::function<void __cdecl(std::vector<unsigned char,std::allocator<unsigned char> > const &,std::basic_string<char,std::char_traits<char>,std::allocator<char> > &)> > >,0> >::clear()
FUNC 24fd0 4b 0 void std::_Tree<std::_Tmap_traits<unsigned __int64,std::function<void __cdecl(std::vector<unsigned char,std::allocator<unsigned char> > const &,__int64,__int64)>,std::less<unsigned __int64>,std::allocator<std::pair<unsigned __int64 const ,std::function<void __cdecl(std::vector<unsigned char,std::allocator<unsigned char> > const &,__int64,__int64)> > >,0> >::clear()
FUNC 25020 4b 0 std::_Tree<std::_Tmap_traits<unsigned __int64,std::function<void >,std::less<unsigned __int64>,std::allocator<std::pair<unsigned __int64 const ,std::function<void > > >,0> >::clear()
FUNC 25070 363 0 next::sdk::events::EventHelper::createName(std::basic_string<char,std::char_traits<char>,std::allocator<char> > const &,std::basic_string<char,std::char_traits<char>,std::allocator<char> > const &,bool)
FUNC 253e0 43 0 void std::allocator<std::_List_node<std::basic_string<char,std::char_traits<char>,std::allocator<char> >,void *> >::deallocate(struct std::_List_node<std::basic_string<char,std::char_traits<char>,std::allocator<char> >,void *> *, const unsigned __int64)
FUNC 25430 3f 0 void std::allocator<std::_Tree_node<std::pair<unsigned __int64 const ,std::function<void __cdecl(std::vector<unsigned char,std::allocator<unsigned char> > const &,std::basic_string<char,std::char_traits<char>,std::allocator<char> > &)> >,void *> >::deallocate(struct std::_Tree_node<std::pair<unsigned __int64 const ,std::function<void __cdecl(std::vector<unsigned char,std::allocator<unsigned char> > const &,std::basic_string<char,std::char_traits<char>,std::allocator<char> > &)> >,void *> *, const unsigned __int64)
FUNC 25470 3f 0 void std::allocator<std::_Tree_node<std::pair<unsigned __int64 const ,std::function<void __cdecl(std::vector<unsigned char,std::allocator<unsigned char> > const &,__int64,__int64)> >,void *> >::deallocate(struct std::_Tree_node<std::pair<unsigned __int64 const ,std::function<void __cdecl(std::vector<unsigned char,std::allocator<unsigned char> > const &,__int64,__int64)> >,void *> *, const unsigned __int64)
FUNC 254b0 3f 0 void std::allocator<std::_Tree_node<std::pair<unsigned __int64 const ,std::function<void __cdecl(std::basic_string<char,std::char_traits<char>,std::allocator<char> >)> >,void *> >::deallocate(struct std::_Tree_node<std::pair<unsigned __int64 const ,std::function<void __cdecl(std::basic_string<char,std::char_traits<char>,std::allocator<char> >)> >,void *> *, const unsigned __int64)
FUNC 254f0 15e 0 next::sdk::events::EventClient::initialize(std::basic_string<char,std::char_traits<char>,std::allocator<char> > const &,std::basic_string<char,std::char_traits<char>,std::allocator<char> > const &,next::sdk::events::RegisteredEvent const &)
FUNC 25650 c2 0 next::sdk::events::EventTypesHookHelper<eCAL::CServiceClient>::lookUpEcalType()
FUNC 25720 255 0 next::sdk::events::EventClient::onClientConnectionCallback(char const *,eCAL::SClientEventCallbackData const *)
FUNC 25980 174 0 std::basic_string<char,std::char_traits<char>,std::allocator<char> >::reserve(unsigned __int64)
FUNC 25b00 19f 0 next::sdk::events::EventTypesHookHelper<eCAL::CServiceClient>::reset()
FUNC 25ca0 103 0 next::sdk::events::SafeGetEcalType<next::sdk::events::EventPublisher>(next::sdk::events::EventManager::ConditionalWait &,std::function<std::shared_ptr<next::sdk::events::EventPublisher> >)
FUNC 25db0 103 0 next::sdk::events::SafeGetEcalType<next::sdk::events::EventSubscriber>(next::sdk::events::EventManager::ConditionalWait &,std::function<std::shared_ptr<next::sdk::events::EventSubscriber> >)
FUNC 25ec0 142 0 next::sdk::events::SafeUnregisterEcalType<next::sdk::events::EventClient>(next::sdk::events::RegisteredEvent const &,next::sdk::events::EventManager::ConditionalWait &,std::function<std::shared_ptr<next::sdk::events::EventClient> >)
FUNC 26010 142 0 next::sdk::events::SafeUnregisterEcalType<next::sdk::events::EventPublisher>(next::sdk::events::RegisteredEvent const &,next::sdk::events::EventManager::ConditionalWait &,std::function<std::shared_ptr<next::sdk::events::EventPublisher> >)
FUNC 26160 142 0 next::sdk::events::SafeUnregisterEcalType<next::sdk::events::EventServer>(next::sdk::events::RegisteredEvent const &,next::sdk::events::EventManager::ConditionalWait &,std::function<std::shared_ptr<next::sdk::events::EventServer> >)
FUNC 262b0 142 0 next::sdk::events::SafeUnregisterEcalType<next::sdk::events::EventSubscriber>(next::sdk::events::RegisteredEvent const &,next::sdk::events::EventManager::ConditionalWait &,std::function<std::shared_ptr<next::sdk::events::EventSubscriber> >)
FUNC 26400 61 0 struct std::_Tree_node<std::pair<std::basic_string<char,std::char_traits<char>,std::allocator<char> > const ,std::shared_ptr<next::sdk::events::EventClient> >,void *> * std::_Tree_comp_alloc<std::_Tmap_traits<std::basic_string<char,std::char_traits<char>,std::allocator<char> >,std::shared_ptr<next::sdk::events::EventClient>,std::less<std::basic_string<char,std::char_traits<char>,std::allocator<char> > >,std::allocator<std::pair<std::basic_string<char,std::char_traits<char>,std::allocator<char> > const ,std::shared_ptr<next::sdk::events::EventClient> > >,0> >::_Buynode<std::piecewise_construct_t const &,std::tuple<std::basic_string<char,std::char_traits<char>,std::allocator<char> > const &>,std::tuple<> >(const struct std::piecewise_construct_t & const, class std::tuple<std::basic_string<char,std::char_traits<char>,std::allocator<char> > const &> *, class std::tuple<> *)
FUNC 26470 61 0 struct std::_Tree_node<std::pair<std::basic_string<char,std::char_traits<char>,std::allocator<char> > const ,std::shared_ptr<next::sdk::events::EventPublisher> >,void *> * std::_Tree_comp_alloc<std::_Tmap_traits<std::basic_string<char,std::char_traits<char>,std::allocator<char> >,std::shared_ptr<next::sdk::events::EventPublisher>,std::less<std::basic_string<char,std::char_traits<char>,std::allocator<char> > >,std::allocator<std::pair<std::basic_string<char,std::char_traits<char>,std::allocator<char> > const ,std::shared_ptr<next::sdk::events::EventPublisher> > >,0> >::_Buynode<std::piecewise_construct_t const &,std::tuple<std::basic_string<char,std::char_traits<char>,std::allocator<char> > const &>,std::tuple<> >(const struct std::piecewise_construct_t & const, class std::tuple<std::basic_string<char,std::char_traits<char>,std::allocator<char> > const &> *, class std::tuple<> *)
FUNC 264e0 61 0 struct std::_Tree_node<std::pair<std::basic_string<char,std::char_traits<char>,std::allocator<char> > const ,std::shared_ptr<next::sdk::events::EventServer> >,void *> * std::_Tree_comp_alloc<std::_Tmap_traits<std::basic_string<char,std::char_traits<char>,std::allocator<char> >,std::shared_ptr<next::sdk::events::EventServer>,std::less<std::basic_string<char,std::char_traits<char>,std::allocator<char> > >,std::allocator<std::pair<std::basic_string<char,std::char_traits<char>,std::allocator<char> > const ,std::shared_ptr<next::sdk::events::EventServer> > >,0> >::_Buynode<std::piecewise_construct_t const &,std::tuple<std::basic_string<char,std::char_traits<char>,std::allocator<char> > const &>,std::tuple<> >(const struct std::piecewise_construct_t & const, class std::tuple<std::basic_string<char,std::char_traits<char>,std::allocator<char> > const &> *, class std::tuple<> *)
FUNC 26550 61 0 struct std::_Tree_node<std::pair<std::basic_string<char,std::char_traits<char>,std::allocator<char> > const ,std::shared_ptr<next::sdk::events::EventSubscriber> >,void *> * std::_Tree_comp_alloc<std::_Tmap_traits<std::basic_string<char,std::char_traits<char>,std::allocator<char> >,std::shared_ptr<next::sdk::events::EventSubscriber>,std::less<std::basic_string<char,std::char_traits<char>,std::allocator<char> > >,std::allocator<std::pair<std::basic_string<char,std::char_traits<char>,std::allocator<char> > const ,std::shared_ptr<next::sdk::events::EventSubscriber> > >,0> >::_Buynode<std::piecewise_construct_t const &,std::tuple<std::basic_string<char,std::char_traits<char>,std::allocator<char> > const &>,std::tuple<> >(const struct std::piecewise_construct_t & const, class std::tuple<std::basic_string<char,std::char_traits<char>,std::allocator<char> > const &> *, class std::tuple<> *)
FUNC 265c0 79 0 std::_Tree_comp_alloc<std::_Tmap_traits<std::basic_string<char,std::char_traits<char>,std::allocator<char> >,std::shared_ptr<next::sdk::events::EventClient>,std::less<std::basic_string<char,std::char_traits<char>,std::allocator<char> > >,std::allocator<std::pair<std::basic_string<char,std::char_traits<char>,std::allocator<char> > const ,std::shared_ptr<next::sdk::events::EventClient> > >,0> >::_Buynode<std::pair<std::basic_string<char,std::char_traits<char>,std::allocator<char> >,std::shared_ptr<next::sdk::events::EventClient> > >(std::pair<std::basic_string<char,std::char_traits<char>,std::allocator<char> >,std::shared_ptr<next::sdk::events::EventClient> > &&)
FUNC 26640 79 0 std::_Tree_comp_alloc<std::_Tmap_traits<std::basic_string<char,std::char_traits<char>,std::allocator<char> >,std::shared_ptr<next::sdk::events::EventPublisher>,std::less<std::basic_string<char,std::char_traits<char>,std::allocator<char> > >,std::allocator<std::pair<std::basic_string<char,std::char_traits<char>,std::allocator<char> > const ,std::shared_ptr<next::sdk::events::EventPublisher> > >,0> >::_Buynode<std::pair<std::basic_string<char,std::char_traits<char>,std::allocator<char> >,std::shared_ptr<next::sdk::events::EventPublisher> > >(std::pair<std::basic_string<char,std::char_traits<char>,std::allocator<char> >,std::shared_ptr<next::sdk::events::EventPublisher> > &&)
FUNC 266c0 79 0 std::_Tree_comp_alloc<std::_Tmap_traits<std::basic_string<char,std::char_traits<char>,std::allocator<char> >,std::shared_ptr<next::sdk::events::EventServer>,std::less<std::basic_string<char,std::char_traits<char>,std::allocator<char> > >,std::allocator<std::pair<std::basic_string<char,std::char_traits<char>,std::allocator<char> > const ,std::shared_ptr<next::sdk::events::EventServer> > >,0> >::_Buynode<std::pair<std::basic_string<char,std::char_traits<char>,std::allocator<char> >,std::shared_ptr<next::sdk::events::EventServer> > >(std::pair<std::basic_string<char,std::char_traits<char>,std::allocator<char> >,std::shared_ptr<next::sdk::events::EventServer> > &&)
FUNC 26740 79 0 std::_Tree_comp_alloc<std::_Tmap_traits<std::basic_string<char,std::char_traits<char>,std::allocator<char> >,std::shared_ptr<next::sdk::events::EventSubscriber>,std::less<std::basic_string<char,std::char_traits<char>,std::allocator<char> > >,std::allocator<std::pair<std::basic_string<char,std::char_traits<char>,std::allocator<char> > const ,std::shared_ptr<next::sdk::events::EventSubscriber> > >,0> >::_Buynode<std::pair<std::basic_string<char,std::char_traits<char>,std::allocator<char> >,std::shared_ptr<next::sdk::events::EventSubscriber> > >(std::pair<std::basic_string<char,std::char_traits<char>,std::allocator<char> >,std::shared_ptr<next::sdk::events::EventSubscriber> > &&)
FUNC 267c0 3 0 std::_Enable_shared_from_this1<next::sdk::events::EventClient,next::sdk::events::EventClient>(std::shared_ptr<next::sdk::events::EventClient> const &,next::sdk::events::EventClient *,std::integral_constant<bool,0>)
FUNC 267d0 3 0 std::_Enable_shared_from_this1<next::sdk::events::EventPublisher,next::sdk::events::EventPublisher>(std::shared_ptr<next::sdk::events::EventPublisher> const &,next::sdk::events::EventPublisher *,std::integral_constant<bool,0>)
FUNC 267e0 3 0 std::_Enable_shared_from_this1<next::sdk::events::EventServer,next::sdk::events::EventServer>(std::shared_ptr<next::sdk::events::EventServer> const &,next::sdk::events::EventServer *,std::integral_constant<bool,0>)
FUNC 267f0 3 0 std::_Enable_shared_from_this1<next::sdk::events::EventSubscriber,next::sdk::events::EventSubscriber>(std::shared_ptr<next::sdk::events::EventSubscriber> const &,next::sdk::events::EventSubscriber *,std::integral_constant<bool,0>)
FUNC 26800 3 0 std::_Enable_shared_from_this<next::sdk::events::EventClient,next::sdk::events::EventClient>(std::shared_ptr<next::sdk::events::EventClient> const &,next::sdk::events::EventClient *)
FUNC 26810 3 0 std::_Enable_shared_from_this<next::sdk::events::EventPublisher,next::sdk::events::EventPublisher>(std::shared_ptr<next::sdk::events::EventPublisher> const &,next::sdk::events::EventPublisher *)
FUNC 26820 3 0 std::_Enable_shared_from_this<next::sdk::events::EventServer,next::sdk::events::EventServer>(std::shared_ptr<next::sdk::events::EventServer> const &,next::sdk::events::EventServer *)
FUNC 26830 3 0 std::_Enable_shared_from_this<next::sdk::events::EventSubscriber,next::sdk::events::EventSubscriber>(std::shared_ptr<next::sdk::events::EventSubscriber> const &,next::sdk::events::EventSubscriber *)
FUNC 26840 278 0 class std::_Tree_iterator<std::_Tree_val<std::_Tree_simple_types<std::pair<std::basic_string<char,std::char_traits<char>,std::allocator<char> > const ,std::shared_ptr<next::sdk::events::EventClient> > > > > std::_Tree<std::_Tmap_traits<std::basic_string<char,std::char_traits<char>,std::allocator<char> >,std::shared_ptr<next::sdk::events::EventClient>,std::less<std::basic_string<char,std::char_traits<char>,std::allocator<char> > >,std::allocator<std::pair<std::basic_string<char,std::char_traits<char>,std::allocator<char> > const ,std::shared_ptr<next::sdk::events::EventClient> > >,0> >::_Insert_at<std::pair<std::basic_string<char,std::char_traits<char>,std::allocator<char> > const ,std::shared_ptr<next::sdk::events::EventClient> > &,std::_Tree_node<std::pair<std::basic_string<char,std::char_traits<char>,std::allocator<char> > const ,std::shared_ptr<next::sdk::events::EventClient> >,void *> *>(bool, struct std::_Tree_node<std::pair<std::basic_string<char,std::char_traits<char>,std::allocator<char> > const ,std::shared_ptr<next::sdk::events::EventClient> >,void *> *, struct std::pair<std::basic_string<char,std::char_traits<char>,std::allocator<char> > const ,std::shared_ptr<next::sdk::events::EventClient> > & const, struct std::_Tree_node<std::pair<std::basic_string<char,std::char_traits<char>,std::allocator<char> > const ,std::shared_ptr<next::sdk::events::EventClient> >,void *> *)
FUNC 26ac0 278 0 class std::_Tree_iterator<std::_Tree_val<std::_Tree_simple_types<std::pair<std::basic_string<char,std::char_traits<char>,std::allocator<char> > const ,std::shared_ptr<next::sdk::events::EventPublisher> > > > > std::_Tree<std::_Tmap_traits<std::basic_string<char,std::char_traits<char>,std::allocator<char> >,std::shared_ptr<next::sdk::events::EventPublisher>,std::less<std::basic_string<char,std::char_traits<char>,std::allocator<char> > >,std::allocator<std::pair<std::basic_string<char,std::char_traits<char>,std::allocator<char> > const ,std::shared_ptr<next::sdk::events::EventPublisher> > >,0> >::_Insert_at<std::pair<std::basic_string<char,std::char_traits<char>,std::allocator<char> > const ,std::shared_ptr<next::sdk::events::EventPublisher> > &,std::_Tree_node<std::pair<std::basic_string<char,std::char_traits<char>,std::allocator<char> > const ,std::shared_ptr<next::sdk::events::EventPublisher> >,void *> *>(bool, struct std::_Tree_node<std::pair<std::basic_string<char,std::char_traits<char>,std::allocator<char> > const ,std::shared_ptr<next::sdk::events::EventPublisher> >,void *> *, struct std::pair<std::basic_string<char,std::char_traits<char>,std::allocator<char> > const ,std::shared_ptr<next::sdk::events::EventPublisher> > & const, struct std::_Tree_node<std::pair<std::basic_string<char,std::char_traits<char>,std::allocator<char> > const ,std::shared_ptr<next::sdk::events::EventPublisher> >,void *> *)
FUNC 26d40 278 0 class std::_Tree_iterator<std::_Tree_val<std::_Tree_simple_types<std::pair<std::basic_string<char,std::char_traits<char>,std::allocator<char> > const ,std::shared_ptr<next::sdk::events::EventServer> > > > > std::_Tree<std::_Tmap_traits<std::basic_string<char,std::char_traits<char>,std::allocator<char> >,std::shared_ptr<next::sdk::events::EventServer>,std::less<std::basic_string<char,std::char_traits<char>,std::allocator<char> > >,std::allocator<std::pair<std::basic_string<char,std::char_traits<char>,std::allocator<char> > const ,std::shared_ptr<next::sdk::events::EventServer> > >,0> >::_Insert_at<std::pair<std::basic_string<char,std::char_traits<char>,std::allocator<char> > const ,std::shared_ptr<next::sdk::events::EventServer> > &,std::_Tree_node<std::pair<std::basic_string<char,std::char_traits<char>,std::allocator<char> > const ,std::shared_ptr<next::sdk::events::EventServer> >,void *> *>(bool, struct std::_Tree_node<std::pair<std::basic_string<char,std::char_traits<char>,std::allocator<char> > const ,std::shared_ptr<next::sdk::events::EventServer> >,void *> *, struct std::pair<std::basic_string<char,std::char_traits<char>,std::allocator<char> > const ,std::shared_ptr<next::sdk::events::EventServer> > & const, struct std::_Tree_node<std::pair<std::basic_string<char,std::char_traits<char>,std::allocator<char> > const ,std::shared_ptr<next::sdk::events::EventServer> >,void *> *)
FUNC 26fc0 278 0 class std::_Tree_iterator<std::_Tree_val<std::_Tree_simple_types<std::pair<std::basic_string<char,std::char_traits<char>,std::allocator<char> > const ,std::shared_ptr<next::sdk::events::EventSubscriber> > > > > std::_Tree<std::_Tmap_traits<std::basic_string<char,std::char_traits<char>,std::allocator<char> >,std::shared_ptr<next::sdk::events::EventSubscriber>,std::less<std::basic_string<char,std::char_traits<char>,std::allocator<char> > >,std::allocator<std::pair<std::basic_string<char,std::char_traits<char>,std::allocator<char> > const ,std::shared_ptr<next::sdk::events::EventSubscriber> > >,0> >::_Insert_at<std::pair<std::basic_string<char,std::char_traits<char>,std::allocator<char> > const ,std::shared_ptr<next::sdk::events::EventSubscriber> > &,std::_Tree_node<std::pair<std::basic_string<char,std::char_traits<char>,std::allocator<char> > const ,std::shared_ptr<next::sdk::events::EventSubscriber> >,void *> *>(bool, struct std::_Tree_node<std::pair<std::basic_string<char,std::char_traits<char>,std::allocator<char> > const ,std::shared_ptr<next::sdk::events::EventSubscriber> >,void *> *, struct std::pair<std::basic_string<char,std::char_traits<char>,std::allocator<char> > const ,std::shared_ptr<next::sdk::events::EventSubscriber> > & const, struct std::_Tree_node<std::pair<std::basic_string<char,std::char_traits<char>,std::allocator<char> > const ,std::shared_ptr<next::sdk::events::EventSubscriber> >,void *> *)
FUNC 27240 237 0 class std::_Tree_iterator<std::_Tree_val<std::_Tree_simple_types<std::pair<std::basic_string<char,std::char_traits<char>,std::allocator<char> > const ,std::shared_ptr<next::sdk::events::EventClient> > > > > std::_Tree<std::_Tmap_traits<std::basic_string<char,std::char_traits<char>,std::allocator<char> >,std::shared_ptr<next::sdk::events::EventClient>,std::less<std::basic_string<char,std::char_traits<char>,std::allocator<char> > >,std::allocator<std::pair<std::basic_string<char,std::char_traits<char>,std::allocator<char> > const ,std::shared_ptr<next::sdk::events::EventClient> > >,0> >::_Insert_hint<std::pair<std::basic_string<char,std::char_traits<char>,std::allocator<char> > const ,std::shared_ptr<next::sdk::events::EventClient> > &,std::_Tree_node<std::pair<std::basic_string<char,std::char_traits<char>,std::allocator<char> > const ,std::shared_ptr<next::sdk::events::EventClient> >,void *> *>(class std::_Tree_const_iterator<std::_Tree_val<std::_Tree_simple_types<std::pair<std::basic_string<char,std::char_traits<char>,std::allocator<char> > const ,std::shared_ptr<next::sdk::events::EventClient> > > > >, struct std::pair<std::basic_string<char,std::char_traits<char>,std::allocator<char> > const ,std::shared_ptr<next::sdk::events::EventClient> > & const, struct std::_Tree_node<std::pair<std::basic_string<char,std::char_traits<char>,std::allocator<char> > const ,std::shared_ptr<next::sdk::events::EventClient> >,void *> *)
FUNC 27480 237 0 class std::_Tree_iterator<std::_Tree_val<std::_Tree_simple_types<std::pair<std::basic_string<char,std::char_traits<char>,std::allocator<char> > const ,std::shared_ptr<next::sdk::events::EventPublisher> > > > > std::_Tree<std::_Tmap_traits<std::basic_string<char,std::char_traits<char>,std::allocator<char> >,std::shared_ptr<next::sdk::events::EventPublisher>,std::less<std::basic_string<char,std::char_traits<char>,std::allocator<char> > >,std::allocator<std::pair<std::basic_string<char,std::char_traits<char>,std::allocator<char> > const ,std::shared_ptr<next::sdk::events::EventPublisher> > >,0> >::_Insert_hint<std::pair<std::basic_string<char,std::char_traits<char>,std::allocator<char> > const ,std::shared_ptr<next::sdk::events::EventPublisher> > &,std::_Tree_node<std::pair<std::basic_string<char,std::char_traits<char>,std::allocator<char> > const ,std::shared_ptr<next::sdk::events::EventPublisher> >,void *> *>(class std::_Tree_const_iterator<std::_Tree_val<std::_Tree_simple_types<std::pair<std::basic_string<char,std::char_traits<char>,std::allocator<char> > const ,std::shared_ptr<next::sdk::events::EventPublisher> > > > >, struct std::pair<std::basic_string<char,std::char_traits<char>,std::allocator<char> > const ,std::shared_ptr<next::sdk::events::EventPublisher> > & const, struct std::_Tree_node<std::pair<std::basic_string<char,std::char_traits<char>,std::allocator<char> > const ,std::shared_ptr<next::sdk::events::EventPublisher> >,void *> *)
FUNC 276c0 237 0 class std::_Tree_iterator<std::_Tree_val<std::_Tree_simple_types<std::pair<std::basic_string<char,std::char_traits<char>,std::allocator<char> > const ,std::shared_ptr<next::sdk::events::EventServer> > > > > std::_Tree<std::_Tmap_traits<std::basic_string<char,std::char_traits<char>,std::allocator<char> >,std::shared_ptr<next::sdk::events::EventServer>,std::less<std::basic_string<char,std::char_traits<char>,std::allocator<char> > >,std::allocator<std::pair<std::basic_string<char,std::char_traits<char>,std::allocator<char> > const ,std::shared_ptr<next::sdk::events::EventServer> > >,0> >::_Insert_hint<std::pair<std::basic_string<char,std::char_traits<char>,std::allocator<char> > const ,std::shared_ptr<next::sdk::events::EventServer> > &,std::_Tree_node<std::pair<std::basic_string<char,std::char_traits<char>,std::allocator<char> > const ,std::shared_ptr<next::sdk::events::EventServer> >,void *> *>(class std::_Tree_const_iterator<std::_Tree_val<std::_Tree_simple_types<std::pair<std::basic_string<char,std::char_traits<char>,std::allocator<char> > const ,std::shared_ptr<next::sdk::events::EventServer> > > > >, struct std::pair<std::basic_string<char,std::char_traits<char>,std::allocator<char> > const ,std::shared_ptr<next::sdk::events::EventServer> > & const, struct std::_Tree_node<std::pair<std::basic_string<char,std::char_traits<char>,std::allocator<char> > const ,std::shared_ptr<next::sdk::events::EventServer> >,void *> *)
FUNC 27900 237 0 class std::_Tree_iterator<std::_Tree_val<std::_Tree_simple_types<std::pair<std::basic_string<char,std::char_traits<char>,std::allocator<char> > const ,std::shared_ptr<next::sdk::events::EventSubscriber> > > > > std::_Tree<std::_Tmap_traits<std::basic_string<char,std::char_traits<char>,std::allocator<char> >,std::shared_ptr<next::sdk::events::EventSubscriber>,std::less<std::basic_string<char,std::char_traits<char>,std::allocator<char> > >,std::allocator<std::pair<std::basic_string<char,std::char_traits<char>,std::allocator<char> > const ,std::shared_ptr<next::sdk::events::EventSubscriber> > >,0> >::_Insert_hint<std::pair<std::basic_string<char,std::char_traits<char>,std::allocator<char> > const ,std::shared_ptr<next::sdk::events::EventSubscriber> > &,std::_Tree_node<std::pair<std::basic_string<char,std::char_traits<char>,std::allocator<char> > const ,std::shared_ptr<next::sdk::events::EventSubscriber> >,void *> *>(class std::_Tree_const_iterator<std::_Tree_val<std::_Tree_simple_types<std::pair<std::basic_string<char,std::char_traits<char>,std::allocator<char> > const ,std::shared_ptr<next::sdk::events::EventSubscriber> > > > >, struct std::pair<std::basic_string<char,std::char_traits<char>,std::allocator<char> > const ,std::shared_ptr<next::sdk::events::EventSubscriber> > & const, struct std::_Tree_node<std::pair<std::basic_string<char,std::char_traits<char>,std::allocator<char> > const ,std::shared_ptr<next::sdk::events::EventSubscriber> >,void *> *)
FUNC 27b40 27f 0 struct std::pair<std::_Tree_iterator<std::_Tree_val<std::_Tree_simple_types<std::pair<std::basic_string<char,std::char_traits<char>,std::allocator<char> > const ,std::shared_ptr<next::sdk::events::EventClient> > > > >,bool> std::_Tree<std::_Tmap_traits<std::basic_string<char,std::char_traits<char>,std::allocator<char> >,std::shared_ptr<next::sdk::events::EventClient>,std::less<std::basic_string<char,std::char_traits<char>,std::allocator<char> > >,std::allocator<std::pair<std::basic_string<char,std::char_traits<char>,std::allocator<char> > const ,std::shared_ptr<next::sdk::events::EventClient> > >,0> >::_Insert_nohint<std::pair<std::basic_string<char,std::char_traits<char>,std::allocator<char> > const ,std::shared_ptr<next::sdk::events::EventClient> > &,std::_Tree_node<std::pair<std::basic_string<char,std::char_traits<char>,std::allocator<char> > const ,std::shared_ptr<next::sdk::events::EventClient> >,void *> *>(bool, struct std::pair<std::basic_string<char,std::char_traits<char>,std::allocator<char> > const ,std::shared_ptr<next::sdk::events::EventClient> > & const, struct std::_Tree_node<std::pair<std::basic_string<char,std::char_traits<char>,std::allocator<char> > const ,std::shared_ptr<next::sdk::events::EventClient> >,void *> *)
FUNC 27dc0 27f 0 struct std::pair<std::_Tree_iterator<std::_Tree_val<std::_Tree_simple_types<std::pair<std::basic_string<char,std::char_traits<char>,std::allocator<char> > const ,std::shared_ptr<next::sdk::events::EventPublisher> > > > >,bool> std::_Tree<std::_Tmap_traits<std::basic_string<char,std::char_traits<char>,std::allocator<char> >,std::shared_ptr<next::sdk::events::EventPublisher>,std::less<std::basic_string<char,std::char_traits<char>,std::allocator<char> > >,std::allocator<std::pair<std::basic_string<char,std::char_traits<char>,std::allocator<char> > const ,std::shared_ptr<next::sdk::events::EventPublisher> > >,0> >::_Insert_nohint<std::pair<std::basic_string<char,std::char_traits<char>,std::allocator<char> > const ,std::shared_ptr<next::sdk::events::EventPublisher> > &,std::_Tree_node<std::pair<std::basic_string<char,std::char_traits<char>,std::allocator<char> > const ,std::shared_ptr<next::sdk::events::EventPublisher> >,void *> *>(bool, struct std::pair<std::basic_string<char,std::char_traits<char>,std::allocator<char> > const ,std::shared_ptr<next::sdk::events::EventPublisher> > & const, struct std::_Tree_node<std::pair<std::basic_string<char,std::char_traits<char>,std::allocator<char> > const ,std::shared_ptr<next::sdk::events::EventPublisher> >,void *> *)
FUNC 28040 27f 0 struct std::pair<std::_Tree_iterator<std::_Tree_val<std::_Tree_simple_types<std::pair<std::basic_string<char,std::char_traits<char>,std::allocator<char> > const ,std::shared_ptr<next::sdk::events::EventServer> > > > >,bool> std::_Tree<std::_Tmap_traits<std::basic_string<char,std::char_traits<char>,std::allocator<char> >,std::shared_ptr<next::sdk::events::EventServer>,std::less<std::basic_string<char,std::char_traits<char>,std::allocator<char> > >,std::allocator<std::pair<std::basic_string<char,std::char_traits<char>,std::allocator<char> > const ,std::shared_ptr<next::sdk::events::EventServer> > >,0> >::_Insert_nohint<std::pair<std::basic_string<char,std::char_traits<char>,std::allocator<char> > const ,std::shared_ptr<next::sdk::events::EventServer> > &,std::_Tree_node<std::pair<std::basic_string<char,std::char_traits<char>,std::allocator<char> > const ,std::shared_ptr<next::sdk::events::EventServer> >,void *> *>(bool, struct std::pair<std::basic_string<char,std::char_traits<char>,std::allocator<char> > const ,std::shared_ptr<next::sdk::events::EventServer> > & const, struct std::_Tree_node<std::pair<std::basic_string<char,std::char_traits<char>,std::allocator<char> > const ,std::shared_ptr<next::sdk::events::EventServer> >,void *> *)
FUNC 282c0 27f 0 struct std::pair<std::_Tree_iterator<std::_Tree_val<std::_Tree_simple_types<std::pair<std::basic_string<char,std::char_traits<char>,std::allocator<char> > const ,std::shared_ptr<next::sdk::events::EventSubscriber> > > > >,bool> std::_Tree<std::_Tmap_traits<std::basic_string<char,std::char_traits<char>,std::allocator<char> >,std::shared_ptr<next::sdk::events::EventSubscriber>,std::less<std::basic_string<char,std::char_traits<char>,std::allocator<char> > >,std::allocator<std::pair<std::basic_string<char,std::char_traits<char>,std::allocator<char> > const ,std::shared_ptr<next::sdk::events::EventSubscriber> > >,0> >::_Insert_nohint<std::pair<std::basic_string<char,std::char_traits<char>,std::allocator<char> > const ,std::shared_ptr<next::sdk::events::EventSubscriber> > &,std::_Tree_node<std::pair<std::basic_string<char,std::char_traits<char>,std::allocator<char> > const ,std::shared_ptr<next::sdk::events::EventSubscriber> >,void *> *>(bool, struct std::pair<std::basic_string<char,std::char_traits<char>,std::allocator<char> > const ,std::shared_ptr<next::sdk::events::EventSubscriber> > & const, struct std::_Tree_node<std::pair<std::basic_string<char,std::char_traits<char>,std::allocator<char> > const ,std::shared_ptr<next::sdk::events::EventSubscriber> >,void *> *)
FUNC 28540 33a 0 next::sdk::events::EventManager::EventManager()
FUNC 28880 2c 0 std::_Func_class<std::shared_ptr<next::sdk::events::EventClient> >::~_Func_class<std::shared_ptr<next::sdk::events::EventClient> >()
FUNC 288b0 2c 0 std::_Func_class<std::shared_ptr<next::sdk::events::EventPublisher> >::~_Func_class<std::shared_ptr<next::sdk::events::EventPublisher> >()
FUNC 288e0 2c 0 std::_Func_class<std::shared_ptr<next::sdk::events::EventServer> >::~_Func_class<std::shared_ptr<next::sdk::events::EventServer> >()
FUNC 28910 2c 0 std::_Func_class<std::shared_ptr<next::sdk::events::EventSubscriber> >::~_Func_class<std::shared_ptr<next::sdk::events::EventSubscriber> >()
FUNC 28940 2c 0 std::function<std::shared_ptr<next::sdk::events::EventClient> >::~function<std::shared_ptr<next::sdk::events::EventClient> >()
FUNC 28970 2c 0 std::function<std::shared_ptr<next::sdk::events::EventPublisher> >::~function<std::shared_ptr<next::sdk::events::EventPublisher> >()
FUNC 289a0 2c 0 std::function<std::shared_ptr<next::sdk::events::EventServer> >::~function<std::shared_ptr<next::sdk::events::EventServer> >()
FUNC 289d0 2c 0 std::function<std::shared_ptr<next::sdk::events::EventSubscriber> >::~function<std::shared_ptr<next::sdk::events::EventSubscriber> >()
FUNC 28a00 5e 0 std::pair<std::basic_string<char,std::char_traits<char>,std::allocator<char> >,std::shared_ptr<next::sdk::events::EventClient> >::~pair<std::basic_string<char,std::char_traits<char>,std::allocator<char> >,std::shared_ptr<next::sdk::events::EventClient> >()
FUNC 28a60 5e 0 std::pair<std::basic_string<char,std::char_traits<char>,std::allocator<char> >,std::shared_ptr<next::sdk::events::EventPublisher> >::~pair<std::basic_string<char,std::char_traits<char>,std::allocator<char> >,std::shared_ptr<next::sdk::events::EventPublisher> >()
FUNC 28ac0 5e 0 std::pair<std::basic_string<char,std::char_traits<char>,std::allocator<char> >,std::shared_ptr<next::sdk::events::EventServer> >::~pair<std::basic_string<char,std::char_traits<char>,std::allocator<char> >,std::shared_ptr<next::sdk::events::EventServer> >()
FUNC 28b20 5e 0 std::pair<std::basic_string<char,std::char_traits<char>,std::allocator<char> >,std::shared_ptr<next::sdk::events::EventSubscriber> >::~pair<std::basic_string<char,std::char_traits<char>,std::allocator<char> >,std::shared_ptr<next::sdk::events::EventSubscriber> >()
FUNC 28b80 4b 0 std::shared_ptr<next::sdk::events::EventClient>::~shared_ptr<next::sdk::events::EventClient>()
FUNC 28bd0 4b 0 std::shared_ptr<next::sdk::events::EventPublisher>::~shared_ptr<next::sdk::events::EventPublisher>()
FUNC 28c20 4b 0 std::shared_ptr<next::sdk::events::EventServer>::~shared_ptr<next::sdk::events::EventServer>()
FUNC 28c70 4b 0 std::shared_ptr<next::sdk::events::EventSubscriber>::~shared_ptr<next::sdk::events::EventSubscriber>()
FUNC 28cc0 2d 0 std::unique_lock<std::mutex>::~unique_lock<std::mutex>()
FUNC 28cf0 2c 0 next::sdk::events::EventManager::ConditionalWait::~ConditionalWait()
FUNC 28d20 97 0 next::sdk::events::EventManager::~EventManager()
FUNC 28dc0 84 0 std::shared_ptr<next::sdk::events::EventPublisher>::operator=(std::shared_ptr<next::sdk::events::EventPublisher> &&)
FUNC 28e50 84 0 std::shared_ptr<next::sdk::events::EventSubscriber>::operator=(std::shared_ptr<next::sdk::events::EventSubscriber> &&)
FUNC 28ee0 66 0 std::_Tree_const_iterator<std::_Tree_val<std::_Tree_simple_types<std::pair<std::basic_string<char,std::char_traits<char>,std::allocator<char> > const ,std::shared_ptr<next::sdk::events::EventClient> > > > >::operator++()
FUNC 28f50 66 0 std::_Tree_const_iterator<std::_Tree_val<std::_Tree_simple_types<std::pair<std::basic_string<char,std::char_traits<char>,std::allocator<char> > const ,std::shared_ptr<next::sdk::events::EventPublisher> > > > >::operator++()
FUNC 28fc0 66 0 std::_Tree_const_iterator<std::_Tree_val<std::_Tree_simple_types<std::pair<std::basic_string<char,std::char_traits<char>,std::allocator<char> > const ,std::shared_ptr<next::sdk::events::EventServer> > > > >::operator++()
FUNC 29030 66 0 std::_Tree_const_iterator<std::_Tree_val<std::_Tree_simple_types<std::pair<std::basic_string<char,std::char_traits<char>,std::allocator<char> > const ,std::shared_ptr<next::sdk::events::EventSubscriber> > > > >::operator++()
FUNC 290a0 84 0 std::_Tree_const_iterator<std::_Tree_val<std::_Tree_simple_types<std::pair<std::basic_string<char,std::char_traits<char>,std::allocator<char> > const ,std::shared_ptr<next::sdk::events::EventClient> > > > >::operator--()
FUNC 29130 84 0 std::_Tree_const_iterator<std::_Tree_val<std::_Tree_simple_types<std::pair<std::basic_string<char,std::char_traits<char>,std::allocator<char> > const ,std::shared_ptr<next::sdk::events::EventPublisher> > > > >::operator--()
FUNC 291c0 84 0 std::_Tree_const_iterator<std::_Tree_val<std::_Tree_simple_types<std::pair<std::basic_string<char,std::char_traits<char>,std::allocator<char> > const ,std::shared_ptr<next::sdk::events::EventServer> > > > >::operator--()
FUNC 29250 84 0 std::_Tree_const_iterator<std::_Tree_val<std::_Tree_simple_types<std::pair<std::basic_string<char,std::char_traits<char>,std::allocator<char> > const ,std::shared_ptr<next::sdk::events::EventSubscriber> > > > >::operator--()
FUNC 292e0 73 0 std::less<std::basic_string<char,std::char_traits<char>,std::allocator<char> > >::operator()(std::basic_string<char,std::char_traits<char>,std::allocator<char> > const &,std::basic_string<char,std::char_traits<char>,std::allocator<char> > const &)
FUNC 29360 96 0 next::sdk::events::EventManager::`vector deleting destructor'(unsigned int)
FUNC 29400 21 0 std::_Ref_count_obj<next::sdk::events::EventClient>::`scalar deleting destructor'(unsigned int)
FUNC 29430 21 0 std::_Ref_count_obj<next::sdk::events::EventPublisher>::`scalar deleting destructor'(unsigned int)
FUNC 29460 21 0 std::_Ref_count_obj<next::sdk::events::EventServer>::`scalar deleting destructor'(unsigned int)
FUNC 29490 21 0 std::_Ref_count_obj<next::sdk::events::EventSubscriber>::`scalar deleting destructor'(unsigned int)
FUNC 294c0 34 0 next::sdk::events::EventManager::`scalar deleting destructor'(unsigned int)
FUNC 29500 e8 0 next::sdk::events::EventManager::GetInstance()
FUNC 295f0 62 0 next::sdk::events::SafeGiveEcalTypeBack(next::sdk::events::EventManager::ConditionalWait &)
FUNC 29660 37 0 std::_Tree_comp_alloc<std::_Tmap_traits<std::basic_string<char,std::char_traits<char>,std::allocator<char> >,std::shared_ptr<next::sdk::events::EventClient>,std::less<std::basic_string<char,std::char_traits<char>,std::allocator<char> > >,std::allocator<std::pair<std::basic_string<char,std::char_traits<char>,std::allocator<char> > const ,std::shared_ptr<next::sdk::events::EventClient> > >,0> >::_Buyheadnode()
FUNC 296a0 37 0 std::_Tree_comp_alloc<std::_Tmap_traits<std::basic_string<char,std::char_traits<char>,std::allocator<char> >,std::shared_ptr<next::sdk::events::EventPublisher>,std::less<std::basic_string<char,std::char_traits<char>,std::allocator<char> > >,std::allocator<std::pair<std::basic_string<char,std::char_traits<char>,std::allocator<char> > const ,std::shared_ptr<next::sdk::events::EventPublisher> > >,0> >::_Buyheadnode()
FUNC 296e0 37 0 std::_Tree_comp_alloc<std::_Tmap_traits<std::basic_string<char,std::char_traits<char>,std::allocator<char> >,std::shared_ptr<next::sdk::events::EventServer>,std::less<std::basic_string<char,std::char_traits<char>,std::allocator<char> > >,std::allocator<std::pair<std::basic_string<char,std::char_traits<char>,std::allocator<char> > const ,std::shared_ptr<next::sdk::events::EventServer> > >,0> >::_Buyheadnode()
FUNC 29720 37 0 std::_Tree_comp_alloc<std::_Tmap_traits<std::basic_string<char,std::char_traits<char>,std::allocator<char> >,std::shared_ptr<next::sdk::events::EventSubscriber>,std::less<std::basic_string<char,std::char_traits<char>,std::allocator<char> > >,std::allocator<std::pair<std::basic_string<char,std::char_traits<char>,std::allocator<char> > const ,std::shared_ptr<next::sdk::events::EventSubscriber> > >,0> >::_Buyheadnode()
FUNC 29760 3f 0 std::_Tree_comp_alloc<std::_Tmap_traits<std::basic_string<char,std::char_traits<char>,std::allocator<char> >,std::shared_ptr<next::sdk::events::EventClient>,std::less<std::basic_string<char,std::char_traits<char>,std::allocator<char> > >,std::allocator<std::pair<std::basic_string<char,std::char_traits<char>,std::allocator<char> > const ,std::shared_ptr<next::sdk::events::EventClient> > >,0> >::_Buynode0()
FUNC 297a0 3f 0 std::_Tree_comp_alloc<std::_Tmap_traits<std::basic_string<char,std::char_traits<char>,std::allocator<char> >,std::shared_ptr<next::sdk::events::EventPublisher>,std::less<std::basic_string<char,std::char_traits<char>,std::allocator<char> > >,std::allocator<std::pair<std::basic_string<char,std::char_traits<char>,std::allocator<char> > const ,std::shared_ptr<next::sdk::events::EventPublisher> > >,0> >::_Buynode0()
FUNC 297e0 3f 0 std::_Tree_comp_alloc<std::_Tmap_traits<std::basic_string<char,std::char_traits<char>,std::allocator<char> >,std::shared_ptr<next::sdk::events::EventServer>,std::less<std::basic_string<char,std::char_traits<char>,std::allocator<char> > >,std::allocator<std::pair<std::basic_string<char,std::char_traits<char>,std::allocator<char> > const ,std::shared_ptr<next::sdk::events::EventServer> > >,0> >::_Buynode0()
FUNC 29820 3f 0 std::_Tree_comp_alloc<std::_Tmap_traits<std::basic_string<char,std::char_traits<char>,std::allocator<char> >,std::shared_ptr<next::sdk::events::EventSubscriber>,std::less<std::basic_string<char,std::char_traits<char>,std::allocator<char> > >,std::allocator<std::pair<std::basic_string<char,std::char_traits<char>,std::allocator<char> > const ,std::shared_ptr<next::sdk::events::EventSubscriber> > >,0> >::_Buynode0()
FUNC 29860 20 0 static class std::_Func_base<std::shared_ptr<next::sdk::events::EventClient> > * std::_Func_impl_no_alloc<<lambda_14871e4234b05c20e17e81d374d73880>,std::shared_ptr<next::sdk::events::EventClient> >::_Copy(void *)
FUNC 29880 20 0 static class std::_Func_base<std::shared_ptr<next::sdk::events::EventSubscriber> > * std::_Func_impl_no_alloc<<lambda_2ca48d7177f91c09b66480ee51aa5a40>,std::shared_ptr<next::sdk::events::EventSubscriber> >::_Copy(void *)
FUNC 298a0 20 0 static class std::_Func_base<std::shared_ptr<next::sdk::events::EventServer> > * std::_Func_impl_no_alloc<<lambda_3840eda2938157e367b0698b55188303>,std::shared_ptr<next::sdk::events::EventServer> >::_Copy(void *)
FUNC 298c0 20 0 static class std::_Func_base<std::shared_ptr<next::sdk::events::EventPublisher> > * std::_Func_impl_no_alloc<<lambda_55da9067a02bae3cd14ccd82a6a1ed59>,std::shared_ptr<next::sdk::events::EventPublisher> >::_Copy(void *)
FUNC 298e0 20 0 static class std::_Func_base<std::shared_ptr<next::sdk::events::EventPublisher> > * std::_Func_impl_no_alloc<<lambda_57b50b7dbb810c2ed9aac7f173dd7f87>,std::shared_ptr<next::sdk::events::EventPublisher> >::_Copy(void *)
FUNC 29900 e 0 static class std::_Func_base<bool,std::map<std::basic_string<char,std::char_traits<char>,std::allocator<char> >,std::any,std::less<std::basic_string<char,std::char_traits<char>,std::allocator<char> > >,std::allocator<std::pair<std::basic_string<char,std::char_traits<char>,std::allocator<char> > const ,std::any> > > const &,int> * std::_Func_impl_no_alloc<<lambda_5f7b2b56a7fa20e6d59e4abb49f072ac>,bool,std::map<std::basic_string<char,std::char_traits<char>,std::allocator<char> >,std::any,std::less<std::basic_string<char,std::char_traits<char>,std::allocator<char> > >,std::allocator<std::pair<std::basic_string<char,std::char_traits<char>,std::allocator<char> > const ,std::any> > > const &,int>::_Copy(void *)
FUNC 29910 16 0 static class std::_Func_base<void,std::map<std::basic_string<char,std::char_traits<char>,std::allocator<char> >,std::any,std::less<std::basic_string<char,std::char_traits<char>,std::allocator<char> > >,std::allocator<std::pair<std::basic_string<char,std::char_traits<char>,std::allocator<char> > const ,std::any> > > const &,int> * std::_Func_impl_no_alloc<<lambda_8529aa3facd2a76fc2aa28b47a98de1d>,void,std::map<std::basic_string<char,std::char_traits<char>,std::allocator<char> >,std::any,std::less<std::basic_string<char,std::char_traits<char>,std::allocator<char> > >,std::allocator<std::pair<std::basic_string<char,std::char_traits<char>,std::allocator<char> > const ,std::any> > > const &,int>::_Copy(void *)
FUNC 29930 20 0 static class std::_Func_base<std::shared_ptr<next::sdk::events::EventPublisher> > * std::_Func_impl_no_alloc<<lambda_9b7fb8d13f2926da54581c604a72d38e>,std::shared_ptr<next::sdk::events::EventPublisher> >::_Copy(void *)
FUNC 29950 20 0 static class std::_Func_base<std::shared_ptr<next::sdk::events::EventSubscriber> > * std::_Func_impl_no_alloc<<lambda_b17502228ebe710176fe942e785c3462>,std::shared_ptr<next::sdk::events::EventSubscriber> >::_Copy(void *)
FUNC 29970 20 0 static class std::_Func_base<std::shared_ptr<next::sdk::events::EventSubscriber> > * std::_Func_impl_no_alloc<<lambda_e99f26907bed831b5b274bd648ffb420>,std::shared_ptr<next::sdk::events::EventSubscriber> >::_Copy(void *)
FUNC 29990 21 0 static void std::_Func_impl_no_alloc<<lambda_14871e4234b05c20e17e81d374d73880>,std::shared_ptr<next::sdk::events::EventClient> >::_Delete_this(bool)
FUNC 299c0 21 0 static void std::_Func_impl_no_alloc<<lambda_2ca48d7177f91c09b66480ee51aa5a40>,std::shared_ptr<next::sdk::events::EventSubscriber> >::_Delete_this(bool)
FUNC 299f0 21 0 static void std::_Func_impl_no_alloc<<lambda_3840eda2938157e367b0698b55188303>,std::shared_ptr<next::sdk::events::EventServer> >::_Delete_this(bool)
FUNC 29a20 21 0 static void std::_Func_impl_no_alloc<<lambda_55da9067a02bae3cd14ccd82a6a1ed59>,std::shared_ptr<next::sdk::events::EventPublisher> >::_Delete_this(bool)
FUNC 29a50 21 0 static void std::_Func_impl_no_alloc<<lambda_57b50b7dbb810c2ed9aac7f173dd7f87>,std::shared_ptr<next::sdk::events::EventPublisher> >::_Delete_this(bool)
FUNC 29a80 21 0 static void std::_Func_impl_no_alloc<<lambda_5f7b2b56a7fa20e6d59e4abb49f072ac>,bool,std::map<std::basic_string<char,std::char_traits<char>,std::allocator<char> >,std::any,std::less<std::basic_string<char,std::char_traits<char>,std::allocator<char> > >,std::allocator<std::pair<std::basic_string<char,std::char_traits<char>,std::allocator<char> > const ,std::any> > > const &,int>::_Delete_this(bool)
FUNC 29ab0 21 0 static void std::_Func_impl_no_alloc<<lambda_8529aa3facd2a76fc2aa28b47a98de1d>,void,std::map<std::basic_string<char,std::char_traits<char>,std::allocator<char> >,std::any,std::less<std::basic_string<char,std::char_traits<char>,std::allocator<char> > >,std::allocator<std::pair<std::basic_string<char,std::char_traits<char>,std::allocator<char> > const ,std::any> > > const &,int>::_Delete_this(bool)
FUNC 29ae0 21 0 static void std::_Func_impl_no_alloc<<lambda_9b7fb8d13f2926da54581c604a72d38e>,std::shared_ptr<next::sdk::events::EventPublisher> >::_Delete_this(bool)
FUNC 29b10 21 0 static void std::_Func_impl_no_alloc<<lambda_b17502228ebe710176fe942e785c3462>,std::shared_ptr<next::sdk::events::EventSubscriber> >::_Delete_this(bool)
FUNC 29b40 21 0 static void std::_Func_impl_no_alloc<<lambda_e99f26907bed831b5b274bd648ffb420>,std::shared_ptr<next::sdk::events::EventSubscriber> >::_Delete_this(bool)
FUNC 29b70 12 0 std::_Ref_count_obj<next::sdk::events::EventClient>::_Delete_this()
FUNC 29b90 12 0 std::_Ref_count_obj<next::sdk::events::EventPublisher>::_Delete_this()
FUNC 29bb0 12 0 std::_Ref_count_obj<next::sdk::events::EventServer>::_Delete_this()
FUNC 29bd0 12 0 std::_Ref_count_obj<next::sdk::events::EventSubscriber>::_Delete_this()
FUNC 29bf0 e 0 std::_Ref_count_obj<next::sdk::events::EventClient>::_Destroy()
FUNC 29c00 e 0 std::_Ref_count_obj<next::sdk::events::EventPublisher>::_Destroy()
FUNC 29c10 e 0 std::_Ref_count_obj<next::sdk::events::EventServer>::_Destroy()
FUNC 29c20 e 0 std::_Ref_count_obj<next::sdk::events::EventSubscriber>::_Destroy()
FUNC 29c30 83 0 std::_Tree<std::_Tmap_traits<std::basic_string<char,std::char_traits<char>,std::allocator<char> >,std::shared_ptr<next::sdk::events::EventClient>,std::less<std::basic_string<char,std::char_traits<char>,std::allocator<char> > >,std::allocator<std::pair<std::basic_string<char,std::char_traits<char>,std::allocator<char> > const ,std::shared_ptr<next::sdk::events::EventClient> > >,0> >::_Destroy_if_node(std::_Tree_node<std::pair<std::basic_string<char,std::char_traits<char>,std::allocator<char> > const ,std::shared_ptr<next::sdk::events::EventClient> >,void *> *)
FUNC 29cc0 83 0 std::_Tree<std::_Tmap_traits<std::basic_string<char,std::char_traits<char>,std::allocator<char> >,std::shared_ptr<next::sdk::events::EventPublisher>,std::less<std::basic_string<char,std::char_traits<char>,std::allocator<char> > >,std::allocator<std::pair<std::basic_string<char,std::char_traits<char>,std::allocator<char> > const ,std::shared_ptr<next::sdk::events::EventPublisher> > >,0> >::_Destroy_if_node(std::_Tree_node<std::pair<std::basic_string<char,std::char_traits<char>,std::allocator<char> > const ,std::shared_ptr<next::sdk::events::EventPublisher> >,void *> *)
FUNC 29d50 83 0 std::_Tree<std::_Tmap_traits<std::basic_string<char,std::char_traits<char>,std::allocator<char> >,std::shared_ptr<next::sdk::events::EventServer>,std::less<std::basic_string<char,std::char_traits<char>,std::allocator<char> > >,std::allocator<std::pair<std::basic_string<char,std::char_traits<char>,std::allocator<char> > const ,std::shared_ptr<next::sdk::events::EventServer> > >,0> >::_Destroy_if_node(std::_Tree_node<std::pair<std::basic_string<char,std::char_traits<char>,std::allocator<char> > const ,std::shared_ptr<next::sdk::events::EventServer> >,void *> *)
FUNC 29de0 83 0 std::_Tree<std::_Tmap_traits<std::basic_string<char,std::char_traits<char>,std::allocator<char> >,std::shared_ptr<next::sdk::events::EventSubscriber>,std::less<std::basic_string<char,std::char_traits<char>,std::allocator<char> > >,std::allocator<std::pair<std::basic_string<char,std::char_traits<char>,std::allocator<char> > const ,std::shared_ptr<next::sdk::events::EventSubscriber> > >,0> >::_Destroy_if_node(std::_Tree_node<std::pair<std::basic_string<char,std::char_traits<char>,std::allocator<char> > const ,std::shared_ptr<next::sdk::events::EventSubscriber> >,void *> *)
FUNC 29e70 b7 0 static class std::shared_ptr<next::sdk::events::EventClient> std::_Func_impl_no_alloc<<lambda_14871e4234b05c20e17e81d374d73880>,std::shared_ptr<next::sdk::events::EventClient> >::_Do_call()
FUNC 29f30 b7 0 static class std::shared_ptr<next::sdk::events::EventSubscriber> std::_Func_impl_no_alloc<<lambda_2ca48d7177f91c09b66480ee51aa5a40>,std::shared_ptr<next::sdk::events::EventSubscriber> >::_Do_call()
FUNC 29ff0 b7 0 static class std::shared_ptr<next::sdk::events::EventServer> std::_Func_impl_no_alloc<<lambda_3840eda2938157e367b0698b55188303>,std::shared_ptr<next::sdk::events::EventServer> >::_Do_call()
FUNC 2a0b0 b7 0 static class std::shared_ptr<next::sdk::events::EventPublisher> std::_Func_impl_no_alloc<<lambda_55da9067a02bae3cd14ccd82a6a1ed59>,std::shared_ptr<next::sdk::events::EventPublisher> >::_Do_call()
FUNC 2a170 b7 0 static class std::shared_ptr<next::sdk::events::EventPublisher> std::_Func_impl_no_alloc<<lambda_57b50b7dbb810c2ed9aac7f173dd7f87>,std::shared_ptr<next::sdk::events::EventPublisher> >::_Do_call()
FUNC 2a230 3 0 static bool std::_Func_impl_no_alloc<<lambda_5f7b2b56a7fa20e6d59e4abb49f072ac>,bool,std::map<std::basic_string<char,std::char_traits<char>,std::allocator<char> >,std::any,std::less<std::basic_string<char,std::char_traits<char>,std::allocator<char> > >,std::allocator<std::pair<std::basic_string<char,std::char_traits<char>,std::allocator<char> > const ,std::any> > > const &,int>::_Do_call(const class std::map<std::basic_string<char,std::char_traits<char>,std::allocator<char> >,std::any,std::less<std::basic_string<char,std::char_traits<char>,std::allocator<char> > >,std::allocator<std::pair<std::basic_string<char,std::char_traits<char>,std::allocator<char> > const ,std::any> > > & const, int *)
FUNC 2a240 2c 0 static void std::_Func_impl_no_alloc<<lambda_8529aa3facd2a76fc2aa28b47a98de1d>,void,std::map<std::basic_string<char,std::char_traits<char>,std::allocator<char> >,std::any,std::less<std::basic_string<char,std::char_traits<char>,std::allocator<char> > >,std::allocator<std::pair<std::basic_string<char,std::char_traits<char>,std::allocator<char> > const ,std::any> > > const &,int>::_Do_call(const class std::map<std::basic_string<char,std::char_traits<char>,std::allocator<char> >,std::any,std::less<std::basic_string<char,std::char_traits<char>,std::allocator<char> > >,std::allocator<std::pair<std::basic_string<char,std::char_traits<char>,std::allocator<char> > const ,std::any> > > & const, int *)
FUNC 2a270 b7 0 static class std::shared_ptr<next::sdk::events::EventPublisher> std::_Func_impl_no_alloc<<lambda_9b7fb8d13f2926da54581c604a72d38e>,std::shared_ptr<next::sdk::events::EventPublisher> >::_Do_call()
FUNC 2a330 b7 0 static class std::shared_ptr<next::sdk::events::EventSubscriber> std::_Func_impl_no_alloc<<lambda_b17502228ebe710176fe942e785c3462>,std::shared_ptr<next::sdk::events::EventSubscriber> >::_Do_call()
FUNC 2a3f0 b7 0 static class std::shared_ptr<next::sdk::events::EventSubscriber> std::_Func_impl_no_alloc<<lambda_e99f26907bed831b5b274bd648ffb420>,std::shared_ptr<next::sdk::events::EventSubscriber> >::_Do_call()
FUNC 2a4b0 b5 0 std::_Tree<std::_Tmap_traits<std::basic_string<char,std::char_traits<char>,std::allocator<char> >,std::shared_ptr<next::sdk::events::EventClient>,std::less<std::basic_string<char,std::char_traits<char>,std::allocator<char> > >,std::allocator<std::pair<std::basic_string<char,std::char_traits<char>,std::allocator<char> > const ,std::shared_ptr<next::sdk::events::EventClient> > >,0> >::_Erase(std::_Tree_node<std::pair<std::basic_string<char,std::char_traits<char>,std::allocator<char> > const ,std::shared_ptr<next::sdk::events::EventClient> >,void *> *)
FUNC 2a570 b5 0 std::_Tree<std::_Tmap_traits<std::basic_string<char,std::char_traits<char>,std::allocator<char> >,std::shared_ptr<next::sdk::events::EventPublisher>,std::less<std::basic_string<char,std::char_traits<char>,std::allocator<char> > >,std::allocator<std::pair<std::basic_string<char,std::char_traits<char>,std::allocator<char> > const ,std::shared_ptr<next::sdk::events::EventPublisher> > >,0> >::_Erase(std::_Tree_node<std::pair<std::basic_string<char,std::char_traits<char>,std::allocator<char> > const ,std::shared_ptr<next::sdk::events::EventPublisher> >,void *> *)
FUNC 2a630 b5 0 std::_Tree<std::_Tmap_traits<std::basic_string<char,std::char_traits<char>,std::allocator<char> >,std::shared_ptr<next::sdk::events::EventServer>,std::less<std::basic_string<char,std::char_traits<char>,std::allocator<char> > >,std::allocator<std::pair<std::basic_string<char,std::char_traits<char>,std::allocator<char> > const ,std::shared_ptr<next::sdk::events::EventServer> > >,0> >::_Erase(std::_Tree_node<std::pair<std::basic_string<char,std::char_traits<char>,std::allocator<char> > const ,std::shared_ptr<next::sdk::events::EventServer> >,void *> *)
FUNC 2a6f0 b5 0 std::_Tree<std::_Tmap_traits<std::basic_string<char,std::char_traits<char>,std::allocator<char> >,std::shared_ptr<next::sdk::events::EventSubscriber>,std::less<std::basic_string<char,std::char_traits<char>,std::allocator<char> > >,std::allocator<std::pair<std::basic_string<char,std::char_traits<char>,std::allocator<char> > const ,std::shared_ptr<next::sdk::events::EventSubscriber> > >,0> >::_Erase(std::_Tree_node<std::pair<std::basic_string<char,std::char_traits<char>,std::allocator<char> > const ,std::shared_ptr<next::sdk::events::EventSubscriber> >,void *> *)
FUNC 2a7b0 355 0 struct std::_Tree_node<std::pair<unsigned __int64 const ,std::function<void __cdecl(std::vector<unsigned char,std::allocator<unsigned char> > const &,std::basic_string<char,std::char_traits<char>,std::allocator<char> > &)> >,void *> * std::_Tree_val<std::_Tree_simple_types<std::pair<unsigned __int64 const ,std::function<void __cdecl(std::vector<unsigned char,std::allocator<unsigned char> > const &,std::basic_string<char,std::char_traits<char>,std::allocator<char> > &)> > > >::_Extract(class std::_Tree_const_iterator<std::_Tree_val<std::_Tree_simple_types<std::pair<unsigned __int64 const ,std::function<void __cdecl(std::vector<unsigned char,std::allocator<unsigned char> > const &,std::basic_string<char,std::char_traits<char>,std::allocator<char> > &)> > > > >)
FUNC 2ab10 355 0 struct std::_Tree_node<std::pair<unsigned __int64 const ,std::function<void __cdecl(std::vector<unsigned char,std::allocator<unsigned char> > const &,__int64,__int64)> >,void *> * std::_Tree_val<std::_Tree_simple_types<std::pair<unsigned __int64 const ,std::function<void __cdecl(std::vector<unsigned char,std::allocator<unsigned char> > const &,__int64,__int64)> > > >::_Extract(class std::_Tree_const_iterator<std::_Tree_val<std::_Tree_simple_types<std::pair<unsigned __int64 const ,std::function<void __cdecl(std::vector<unsigned char,std::allocator<unsigned char> > const &,__int64,__int64)> > > > >)
FUNC 2ae70 355 0 std::_Tree_val<std::_Tree_simple_types<std::pair<unsigned __int64 const ,std::function<void > > > >::_Extract(std::_Tree_const_iterator<std::_Tree_val<std::_Tree_simple_types<std::pair<unsigned __int64 const ,std::function<void > > > > >)
FUNC 2b1d0 20 0 std::_Tree_comp_alloc<std::_Tmap_traits<std::basic_string<char,std::char_traits<char>,std::allocator<char> >,std::shared_ptr<next::sdk::events::EventClient>,std::less<std::basic_string<char,std::char_traits<char>,std::allocator<char> > >,std::allocator<std::pair<std::basic_string<char,std::char_traits<char>,std::allocator<char> > const ,std::shared_ptr<next::sdk::events::EventClient> > >,0> >::_Freenode0(std::_Tree_node<std::pair<std::basic_string<char,std::char_traits<char>,std::allocator<char> > const ,std::shared_ptr<next::sdk::events::EventClient> >,void *> *)
FUNC 2b1f0 20 0 std::_Tree_comp_alloc<std::_Tmap_traits<std::basic_string<char,std::char_traits<char>,std::allocator<char> >,std::shared_ptr<next::sdk::events::EventPublisher>,std::less<std::basic_string<char,std::char_traits<char>,std::allocator<char> > >,std::allocator<std::pair<std::basic_string<char,std::char_traits<char>,std::allocator<char> > const ,std::shared_ptr<next::sdk::events::EventPublisher> > >,0> >::_Freenode0(std::_Tree_node<std::pair<std::basic_string<char,std::char_traits<char>,std::allocator<char> > const ,std::shared_ptr<next::sdk::events::EventPublisher> >,void *> *)
FUNC 2b210 20 0 std::_Tree_comp_alloc<std::_Tmap_traits<std::basic_string<char,std::char_traits<char>,std::allocator<char> >,std::shared_ptr<next::sdk::events::EventServer>,std::less<std::basic_string<char,std::char_traits<char>,std::allocator<char> > >,std::allocator<std::pair<std::basic_string<char,std::char_traits<char>,std::allocator<char> > const ,std::shared_ptr<next::sdk::events::EventServer> > >,0> >::_Freenode0(std::_Tree_node<std::pair<std::basic_string<char,std::char_traits<char>,std::allocator<char> > const ,std::shared_ptr<next::sdk::events::EventServer> >,void *> *)
FUNC 2b230 20 0 std::_Tree_comp_alloc<std::_Tmap_traits<std::basic_string<char,std::char_traits<char>,std::allocator<char> >,std::shared_ptr<next::sdk::events::EventSubscriber>,std::less<std::basic_string<char,std::char_traits<char>,std::allocator<char> > >,std::allocator<std::pair<std::basic_string<char,std::char_traits<char>,std::allocator<char> > const ,std::shared_ptr<next::sdk::events::EventSubscriber> > >,0> >::_Freenode0(std::_Tree_node<std::pair<std::basic_string<char,std::char_traits<char>,std::allocator<char> > const ,std::shared_ptr<next::sdk::events::EventSubscriber> >,void *> *)
FUNC 2b250 5 0 static const void * std::_Func_impl_no_alloc<<lambda_14871e4234b05c20e17e81d374d73880>,std::shared_ptr<next::sdk::events::EventClient> >::_Get()
FUNC 2b260 5 0 static const void * std::_Func_impl_no_alloc<<lambda_2ca48d7177f91c09b66480ee51aa5a40>,std::shared_ptr<next::sdk::events::EventSubscriber> >::_Get()
FUNC 2b270 5 0 static const void * std::_Func_impl_no_alloc<<lambda_3840eda2938157e367b0698b55188303>,std::shared_ptr<next::sdk::events::EventServer> >::_Get()
FUNC 2b280 5 0 static const void * std::_Func_impl_no_alloc<<lambda_55da9067a02bae3cd14ccd82a6a1ed59>,std::shared_ptr<next::sdk::events::EventPublisher> >::_Get()
FUNC 2b290 5 0 static const void * std::_Func_impl_no_alloc<<lambda_57b50b7dbb810c2ed9aac7f173dd7f87>,std::shared_ptr<next::sdk::events::EventPublisher> >::_Get()
FUNC 2b2a0 5 0 static const void * std::_Func_impl_no_alloc<<lambda_5f7b2b56a7fa20e6d59e4abb49f072ac>,bool,std::map<std::basic_string<char,std::char_traits<char>,std::allocator<char> >,std::any,std::less<std::basic_string<char,std::char_traits<char>,std::allocator<char> > >,std::allocator<std::pair<std::basic_string<char,std::char_traits<char>,std::allocator<char> > const ,std::any> > > const &,int>::_Get()
FUNC 2b2b0 5 0 static const void * std::_Func_impl_no_alloc<<lambda_8529aa3facd2a76fc2aa28b47a98de1d>,void,std::map<std::basic_string<char,std::char_traits<char>,std::allocator<char> >,std::any,std::less<std::basic_string<char,std::char_traits<char>,std::allocator<char> > >,std::allocator<std::pair<std::basic_string<char,std::char_traits<char>,std::allocator<char> > const ,std::any> > > const &,int>::_Get()
FUNC 2b2c0 5 0 static const void * std::_Func_impl_no_alloc<<lambda_9b7fb8d13f2926da54581c604a72d38e>,std::shared_ptr<next::sdk::events::EventPublisher> >::_Get()
FUNC 2b2d0 5 0 static const void * std::_Func_impl_no_alloc<<lambda_b17502228ebe710176fe942e785c3462>,std::shared_ptr<next::sdk::events::EventSubscriber> >::_Get()
FUNC 2b2e0 5 0 static const void * std::_Func_impl_no_alloc<<lambda_e99f26907bed831b5b274bd648ffb420>,std::shared_ptr<next::sdk::events::EventSubscriber> >::_Get()
FUNC 2b2f0 55 0 void std::_Tree_val<std::_Tree_simple_types<std::pair<unsigned __int64 const ,std::function<void __cdecl(std::vector<unsigned char,std::allocator<unsigned char> > const &,std::basic_string<char,std::char_traits<char>,std::allocator<char> > &)> > > >::_Lrotate(struct std::_Tree_node<std::pair<unsigned __int64 const ,std::function<void __cdecl(std::vector<unsigned char,std::allocator<unsigned char> > const &,std::basic_string<char,std::char_traits<char>,std::allocator<char> > &)> >,void *> *)
FUNC 2b350 55 0 void std::_Tree_val<std::_Tree_simple_types<std::pair<unsigned __int64 const ,std::function<void __cdecl(std::vector<unsigned char,std::allocator<unsigned char> > const &,__int64,__int64)> > > >::_Lrotate(struct std::_Tree_node<std::pair<unsigned __int64 const ,std::function<void __cdecl(std::vector<unsigned char,std::allocator<unsigned char> > const &,__int64,__int64)> >,void *> *)
FUNC 2b3b0 55 0 std::_Tree_val<std::_Tree_simple_types<std::pair<unsigned __int64 const ,std::function<void > > > >::_Lrotate(std::_Tree_node<std::pair<unsigned __int64 const ,std::function<void > >,void *> *)
FUNC 2b410 20 0 static class std::_Func_base<std::shared_ptr<next::sdk::events::EventClient> > * std::_Func_impl_no_alloc<<lambda_14871e4234b05c20e17e81d374d73880>,std::shared_ptr<next::sdk::events::EventClient> >::_Move(void *)
FUNC 2b430 20 0 static class std::_Func_base<std::shared_ptr<next::sdk::events::EventSubscriber> > * std::_Func_impl_no_alloc<<lambda_2ca48d7177f91c09b66480ee51aa5a40>,std::shared_ptr<next::sdk::events::EventSubscriber> >::_Move(void *)
FUNC 2b450 20 0 static class std::_Func_base<std::shared_ptr<next::sdk::events::EventServer> > * std::_Func_impl_no_alloc<<lambda_3840eda2938157e367b0698b55188303>,std::shared_ptr<next::sdk::events::EventServer> >::_Move(void *)
FUNC 2b470 20 0 static class std::_Func_base<std::shared_ptr<next::sdk::events::EventPublisher> > * std::_Func_impl_no_alloc<<lambda_55da9067a02bae3cd14ccd82a6a1ed59>,std::shared_ptr<next::sdk::events::EventPublisher> >::_Move(void *)
FUNC 2b490 20 0 static class std::_Func_base<std::shared_ptr<next::sdk::events::EventPublisher> > * std::_Func_impl_no_alloc<<lambda_57b50b7dbb810c2ed9aac7f173dd7f87>,std::shared_ptr<next::sdk::events::EventPublisher> >::_Move(void *)
FUNC 2b4b0 e 0 static class std::_Func_base<bool,std::map<std::basic_string<char,std::char_traits<char>,std::allocator<char> >,std::any,std::less<std::basic_string<char,std::char_traits<char>,std::allocator<char> > >,std::allocator<std::pair<std::basic_string<char,std::char_traits<char>,std::allocator<char> > const ,std::any> > > const &,int> * std::_Func_impl_no_alloc<<lambda_5f7b2b56a7fa20e6d59e4abb49f072ac>,bool,std::map<std::basic_string<char,std::char_traits<char>,std::allocator<char> >,std::any,std::less<std::basic_string<char,std::char_traits<char>,std::allocator<char> > >,std::allocator<std::pair<std::basic_string<char,std::char_traits<char>,std::allocator<char> > const ,std::any> > > const &,int>::_Move(void *)
FUNC 2b4c0 16 0 static class std::_Func_base<void,std::map<std::basic_string<char,std::char_traits<char>,std::allocator<char> >,std::any,std::less<std::basic_string<char,std::char_traits<char>,std::allocator<char> > >,std::allocator<std::pair<std::basic_string<char,std::char_traits<char>,std::allocator<char> > const ,std::any> > > const &,int> * std::_Func_impl_no_alloc<<lambda_8529aa3facd2a76fc2aa28b47a98de1d>,void,std::map<std::basic_string<char,std::char_traits<char>,std::allocator<char> >,std::any,std::less<std::basic_string<char,std::char_traits<char>,std::allocator<char> > >,std::allocator<std::pair<std::basic_string<char,std::char_traits<char>,std::allocator<char> > const ,std::any> > > const &,int>::_Move(void *)
FUNC 2b4e0 20 0 static class std::_Func_base<std::shared_ptr<next::sdk::events::EventPublisher> > * std::_Func_impl_no_alloc<<lambda_9b7fb8d13f2926da54581c604a72d38e>,std::shared_ptr<next::sdk::events::EventPublisher> >::_Move(void *)
FUNC 2b500 20 0 static class std::_Func_base<std::shared_ptr<next::sdk::events::EventSubscriber> > * std::_Func_impl_no_alloc<<lambda_b17502228ebe710176fe942e785c3462>,std::shared_ptr<next::sdk::events::EventSubscriber> >::_Move(void *)
FUNC 2b520 20 0 static class std::_Func_base<std::shared_ptr<next::sdk::events::EventSubscriber> > * std::_Func_impl_no_alloc<<lambda_e99f26907bed831b5b274bd648ffb420>,std::shared_ptr<next::sdk::events::EventSubscriber> >::_Move(void *)
FUNC 2b540 59 0 std::_Tree_val<std::_Tree_simple_types<std::pair<std::basic_string<char,std::char_traits<char>,std::allocator<char> > const ,std::shared_ptr<next::sdk::events::EventClient> > > >::_Rrotate(std::_Tree_node<std::pair<std::basic_string<char,std::char_traits<char>,std::allocator<char> > const ,std::shared_ptr<next::sdk::events::EventClient> >,void *> *)
FUNC 2b5a0 59 0 std::_Tree_val<std::_Tree_simple_types<std::pair<std::basic_string<char,std::char_traits<char>,std::allocator<char> > const ,std::shared_ptr<next::sdk::events::EventPublisher> > > >::_Rrotate(std::_Tree_node<std::pair<std::basic_string<char,std::char_traits<char>,std::allocator<char> > const ,std::shared_ptr<next::sdk::events::EventPublisher> >,void *> *)
FUNC 2b600 59 0 std::_Tree_val<std::_Tree_simple_types<std::pair<std::basic_string<char,std::char_traits<char>,std::allocator<char> > const ,std::shared_ptr<next::sdk::events::EventServer> > > >::_Rrotate(std::_Tree_node<std::pair<std::basic_string<char,std::char_traits<char>,std::allocator<char> > const ,std::shared_ptr<next::sdk::events::EventServer> >,void *> *)
FUNC 2b660 59 0 std::_Tree_val<std::_Tree_simple_types<std::pair<std::basic_string<char,std::char_traits<char>,std::allocator<char> > const ,std::shared_ptr<next::sdk::events::EventSubscriber> > > >::_Rrotate(std::_Tree_node<std::pair<std::basic_string<char,std::char_traits<char>,std::allocator<char> > const ,std::shared_ptr<next::sdk::events::EventSubscriber> >,void *> *)
FUNC 2b6c0 59 0 void std::_Tree_val<std::_Tree_simple_types<std::pair<unsigned __int64 const ,std::function<void __cdecl(std::vector<unsigned char,std::allocator<unsigned char> > const &,std::basic_string<char,std::char_traits<char>,std::allocator<char> > &)> > > >::_Rrotate(struct std::_Tree_node<std::pair<unsigned __int64 const ,std::function<void __cdecl(std::vector<unsigned char,std::allocator<unsigned char> > const &,std::basic_string<char,std::char_traits<char>,std::allocator<char> > &)> >,void *> *)
FUNC 2b720 59 0 void std::_Tree_val<std::_Tree_simple_types<std::pair<unsigned __int64 const ,std::function<void __cdecl(std::vector<unsigned char,std::allocator<unsigned char> > const &,__int64,__int64)> > > >::_Rrotate(struct std::_Tree_node<std::pair<unsigned __int64 const ,std::function<void __cdecl(std::vector<unsigned char,std::allocator<unsigned char> > const &,__int64,__int64)> >,void *> *)
FUNC 2b780 8 0 static const class type_info & const std::_Func_impl_no_alloc<<lambda_14871e4234b05c20e17e81d374d73880>,std::shared_ptr<next::sdk::events::EventClient> >::_Target_type()
FUNC 2b790 8 0 static const class type_info & const std::_Func_impl_no_alloc<<lambda_2ca48d7177f91c09b66480ee51aa5a40>,std::shared_ptr<next::sdk::events::EventSubscriber> >::_Target_type()
FUNC 2b7a0 8 0 static const class type_info & const std::_Func_impl_no_alloc<<lambda_3840eda2938157e367b0698b55188303>,std::shared_ptr<next::sdk::events::EventServer> >::_Target_type()
FUNC 2b7b0 8 0 static const class type_info & const std::_Func_impl_no_alloc<<lambda_55da9067a02bae3cd14ccd82a6a1ed59>,std::shared_ptr<next::sdk::events::EventPublisher> >::_Target_type()
FUNC 2b7c0 8 0 static const class type_info & const std::_Func_impl_no_alloc<<lambda_57b50b7dbb810c2ed9aac7f173dd7f87>,std::shared_ptr<next::sdk::events::EventPublisher> >::_Target_type()
FUNC 2b7d0 8 0 static const class type_info & const std::_Func_impl_no_alloc<<lambda_5f7b2b56a7fa20e6d59e4abb49f072ac>,bool,std::map<std::basic_string<char,std::char_traits<char>,std::allocator<char> >,std::any,std::less<std::basic_string<char,std::char_traits<char>,std::allocator<char> > >,std::allocator<std::pair<std::basic_string<char,std::char_traits<char>,std::allocator<char> > const ,std::any> > > const &,int>::_Target_type()
FUNC 2b7e0 8 0 static const class type_info & const std::_Func_impl_no_alloc<<lambda_8529aa3facd2a76fc2aa28b47a98de1d>,void,std::map<std::basic_string<char,std::char_traits<char>,std::allocator<char> >,std::any,std::less<std::basic_string<char,std::char_traits<char>,std::allocator<char> > >,std::allocator<std::pair<std::basic_string<char,std::char_traits<char>,std::allocator<char> > const ,std::any> > > const &,int>::_Target_type()
FUNC 2b7f0 8 0 static const class type_info & const std::_Func_impl_no_alloc<<lambda_9b7fb8d13f2926da54581c604a72d38e>,std::shared_ptr<next::sdk::events::EventPublisher> >::_Target_type()
FUNC 2b800 8 0 static const class type_info & const std::_Func_impl_no_alloc<<lambda_b17502228ebe710176fe942e785c3462>,std::shared_ptr<next::sdk::events::EventSubscriber> >::_Target_type()
FUNC 2b810 8 0 static const class type_info & const std::_Func_impl_no_alloc<<lambda_e99f26907bed831b5b274bd648ffb420>,std::shared_ptr<next::sdk::events::EventSubscriber> >::_Target_type()
FUNC 2b820 189 0 next::sdk::events::EventManager::call(std::basic_string<char,std::char_traits<char>,std::allocator<char> > const &,std::basic_string<char,std::char_traits<char>,std::allocator<char> > const &,std::vector<unsigned char,std::allocator<unsigned char> > const &,next::sdk::events::RegisteredEvent const &,std::list<std::basic_string<char,std::char_traits<char>,std::allocator<char> >,std::allocator<std::basic_string<char,std::char_traits<char>,std::allocator<char> > > > &)
FUNC 2b9b0 2c 0 next::sdk::events::EventManager::clean()
FUNC 2b9e0 43 0 void std::allocator<std::_Tree_node<std::pair<std::basic_string<char,std::char_traits<char>,std::allocator<char> > const ,std::shared_ptr<next::sdk::events::EventClient> >,void *> >::deallocate(struct std::_Tree_node<std::pair<std::basic_string<char,std::char_traits<char>,std::allocator<char> > const ,std::shared_ptr<next::sdk::events::EventClient> >,void *> *, const unsigned __int64)
FUNC 2ba30 43 0 void std::allocator<std::_Tree_node<std::pair<std::basic_string<char,std::char_traits<char>,std::allocator<char> > const ,std::shared_ptr<next::sdk::events::EventPublisher> >,void *> >::deallocate(struct std::_Tree_node<std::pair<std::basic_string<char,std::char_traits<char>,std::allocator<char> > const ,std::shared_ptr<next::sdk::events::EventPublisher> >,void *> *, const unsigned __int64)
FUNC 2ba80 43 0 void std::allocator<std::_Tree_node<std::pair<std::basic_string<char,std::char_traits<char>,std::allocator<char> > const ,std::shared_ptr<next::sdk::events::EventServer> >,void *> >::deallocate(struct std::_Tree_node<std::pair<std::basic_string<char,std::char_traits<char>,std::allocator<char> > const ,std::shared_ptr<next::sdk::events::EventServer> >,void *> *, const unsigned __int64)
FUNC 2bad0 43 0 void std::allocator<std::_Tree_node<std::pair<std::basic_string<char,std::char_traits<char>,std::allocator<char> > const ,std::shared_ptr<next::sdk::events::EventSubscriber> >,void *> >::deallocate(struct std::_Tree_node<std::pair<std::basic_string<char,std::char_traits<char>,std::allocator<char> > const ,std::shared_ptr<next::sdk::events::EventSubscriber> >,void *> *, const unsigned __int64)
FUNC 2bb20 184 0 class std::_Tree_iterator<std::_Tree_val<std::_Tree_simple_types<std::pair<unsigned __int64 const ,std::function<void __cdecl(std::vector<unsigned char,std::allocator<unsigned char> > const &,std::basic_string<char,std::char_traits<char>,std::allocator<char> > &)> > > > > std::_Tree<std::_Tmap_traits<unsigned __int64,std::function<void __cdecl(std::vector<unsigned char,std::allocator<unsigned char> > const &,std::basic_string<char,std::char_traits<char>,std::allocator<char> > &)>,std::less<unsigned __int64>,std::allocator<std::pair<unsigned __int64 const ,std::function<void __cdecl(std::vector<unsigned char,std::allocator<unsigned char> > const &,std::basic_string<char,std::char_traits<char>,std::allocator<char> > &)> > >,0> >::erase(class std::_Tree_const_iterator<std::_Tree_val<std::_Tree_simple_types<std::pair<unsigned __int64 const ,std::function<void __cdecl(std::vector<unsigned char,std::allocator<unsigned char> > const &,std::basic_string<char,std::char_traits<char>,std::allocator<char> > &)> > > > >, class std::_Tree_const_iterator<std::_Tree_val<std::_Tree_simple_types<std::pair<unsigned __int64 const ,std::function<void __cdecl(std::vector<unsigned char,std::allocator<unsigned char> > const &,std::basic_string<char,std::char_traits<char>,std::allocator<char> > &)> > > > >)
FUNC 2bcb0 117 0 unsigned __int64 std::_Tree<std::_Tmap_traits<unsigned __int64,std::function<void __cdecl(std::vector<unsigned char,std::allocator<unsigned char> > const &,std::basic_string<char,std::char_traits<char>,std::allocator<char> > &)>,std::less<unsigned __int64>,std::allocator<std::pair<unsigned __int64 const ,std::function<void __cdecl(std::vector<unsigned char,std::allocator<unsigned char> > const &,std::basic_string<char,std::char_traits<char>,std::allocator<char> > &)> > >,0> >::erase(const unsigned __int64 & const)
FUNC 2bdd0 184 0 class std::_Tree_iterator<std::_Tree_val<std::_Tree_simple_types<std::pair<unsigned __int64 const ,std::function<void __cdecl(std::vector<unsigned char,std::allocator<unsigned char> > const &,__int64,__int64)> > > > > std::_Tree<std::_Tmap_traits<unsigned __int64,std::function<void __cdecl(std::vector<unsigned char,std::allocator<unsigned char> > const &,__int64,__int64)>,std::less<unsigned __int64>,std::allocator<std::pair<unsigned __int64 const ,std::function<void __cdecl(std::vector<unsigned char,std::allocator<unsigned char> > const &,__int64,__int64)> > >,0> >::erase(class std::_Tree_const_iterator<std::_Tree_val<std::_Tree_simple_types<std::pair<unsigned __int64 const ,std::function<void __cdecl(std::vector<unsigned char,std::allocator<unsigned char> > const &,__int64,__int64)> > > > >, class std::_Tree_const_iterator<std::_Tree_val<std::_Tree_simple_types<std::pair<unsigned __int64 const ,std::function<void __cdecl(std::vector<unsigned char,std::allocator<unsigned char> > const &,__int64,__int64)> > > > >)
FUNC 2bf60 117 0 unsigned __int64 std::_Tree<std::_Tmap_traits<unsigned __int64,std::function<void __cdecl(std::vector<unsigned char,std::allocator<unsigned char> > const &,__int64,__int64)>,std::less<unsigned __int64>,std::allocator<std::pair<unsigned __int64 const ,std::function<void __cdecl(std::vector<unsigned char,std::allocator<unsigned char> > const &,__int64,__int64)> > >,0> >::erase(const unsigned __int64 & const)
FUNC 2c080 184 0 std::_Tree<std::_Tmap_traits<unsigned __int64,std::function<void >,std::less<unsigned __int64>,std::allocator<std::pair<unsigned __int64 const ,std::function<void > > >,0> >::erase(std::_Tree_const_iterator<std::_Tree_val<std::_Tree_simple_types<std::pair<unsigned __int64 const ,std::function<void > > > > >,std::_Tree_const_iterator<std::_Tree_val<std::_Tree_simple_types<std::pair<unsigned __int64 const ,std::function<void > > > > >)
FUNC 2c210 117 0 std::_Tree<std::_Tmap_traits<unsigned __int64,std::function<void >,std::less<unsigned __int64>,std::allocator<std::pair<unsigned __int64 const ,std::function<void > > >,0> >::erase(unsigned __int64 const &)
FUNC 2c330 27f 0 next::sdk::events::getClientSingleton(std::basic_string<char,std::char_traits<char>,std::allocator<char> > const &)
FUNC 2c5b0 159 0 next::sdk::events::EventManager::getNumberOfSubscribers(std::basic_string<char,std::char_traits<char>,std::allocator<char> > const &,std::basic_string<char,std::char_traits<char>,std::allocator<char> > const &)
FUNC 2c710 27f 0 next::sdk::events::getPublisherSingleton(std::basic_string<char,std::char_traits<char>,std::allocator<char> > const &)
FUNC 2c990 27f 0 next::sdk::events::getServerSingleton(std::basic_string<char,std::char_traits<char>,std::allocator<char> > const &)
FUNC 2cc10 27f 0 next::sdk::events::getSubscriberSingleton(std::basic_string<char,std::char_traits<char>,std::allocator<char> > const &)
FUNC 2ce90 233 0 next::sdk::events::EventManager::initializeEventBinary(std::basic_string<char,std::char_traits<char>,std::allocator<char> > const &,std::basic_string<char,std::char_traits<char>,std::allocator<char> > const &,next::sdk::events::RegisteredEvent const &)
FUNC 2d0d0 25e 0 next::sdk::events::EventManager::initializeEventBinaryBlocking(std::basic_string<char,std::char_traits<char>,std::allocator<char> > const &,std::basic_string<char,std::char_traits<char>,std::allocator<char> > const &,next::sdk::events::RegisteredEvent const &)
FUNC 2d330 161 0 next::sdk::events::EventManager::listen(std::basic_string<char,std::char_traits<char>,std::allocator<char> > const &,std::basic_string<char,std::char_traits<char>,std::allocator<char> > const &,next::sdk::events::RegisteredEvent const &)
FUNC 2d4a0 18e 0 next::sdk::events::EventManager::publish(std::basic_string<char,std::char_traits<char>,std::allocator<char> > const &,std::basic_string<char,std::char_traits<char>,std::allocator<char> > const &,std::vector<unsigned char,std::allocator<unsigned char> > const &,next::sdk::events::RegisteredEvent const &,std::list<std::basic_string<char,std::char_traits<char>,std::allocator<char> >,std::allocator<std::basic_string<char,std::char_traits<char>,std::allocator<char> > > > &)
FUNC 2d630 29b 0 next::sdk::events::EventManager::resetAll()
FUNC 2d8d0 172 0 next::sdk::events::EventManager::subscribe(std::basic_string<char,std::char_traits<char>,std::allocator<char> > const &,std::basic_string<char,std::char_traits<char>,std::allocator<char> > const &,next::sdk::events::RegisteredEvent const &)
FUNC 2da50 303 0 next::sdk::events::EventManager::unregister(next::sdk::events::RegisteredEvent const &,std::basic_string<char,std::char_traits<char>,std::allocator<char> > const &,std::basic_string<char,std::char_traits<char>,std::allocator<char> > const &)
FUNC 2dd60 156 0 next::sdk::events::EventTypesHookHelper<eCAL::CPublisher>::unregisterHooks(next::sdk::events::RegisteredEvent const &)
FUNC 2dec0 156 0 next::sdk::events::EventTypesHookHelper<eCAL::CServiceClient>::unregisterHooks(next::sdk::events::RegisteredEvent const &)
FUNC 2e020 156 0 next::sdk::events::EventTypesHookHelper<eCAL::CServiceServer>::unregisterHooks(next::sdk::events::RegisteredEvent const &)
FUNC 2e180 156 0 next::sdk::events::EventTypesHookHelper<eCAL::CSubscriber>::unregisterHooks(next::sdk::events::RegisteredEvent const &)
FUNC 2e2e0 3d 0 struct std::_List_node<std::pair<unsigned __int64 const ,__int64>,void *> * std::_List_buy<std::pair<unsigned __int64 const ,__int64>,std::allocator<std::pair<unsigned __int64 const ,__int64> > >::_Buynode<std::piecewise_construct_t const &,std::tuple<unsigned __int64 const &>,std::tuple<> >(struct std::_List_node<std::pair<unsigned __int64 const ,__int64>,void *> *, struct std::_List_node<std::pair<unsigned __int64 const ,__int64>,void *> *, const struct std::piecewise_construct_t & const, class std::tuple<unsigned __int64 const &> *, class std::tuple<> *)
FUNC 2e320 3 0 std::_Enable_shared_from_this1<eCAL::CPublisher,eCAL::CPublisher>(std::shared_ptr<eCAL::CPublisher> const &,eCAL::CPublisher *,std::integral_constant<bool,0>)
FUNC 2e330 3 0 std::_Enable_shared_from_this<eCAL::CPublisher,eCAL::CPublisher>(std::shared_ptr<eCAL::CPublisher> const &,eCAL::CPublisher *)
FUNC 2e340 97 0 void std::_Fill_unchecked<std::_List_unchecked_iterator<std::_List_val<std::_List_simple_types<std::pair<unsigned __int64 const ,__int64> > > > *,std::_List_unchecked_iterator<std::_List_val<std::_List_simple_types<std::pair<unsigned __int64 const ,__int64> > > > >(class std::_List_unchecked_iterator<std::_List_val<std::_List_simple_types<std::pair<unsigned __int64 const ,__int64> > > > *, class std::_List_unchecked_iterator<std::_List_val<std::_List_simple_types<std::pair<unsigned __int64 const ,__int64> > > > *, const class std::_List_unchecked_iterator<std::_List_val<std::_List_simple_types<std::pair<unsigned __int64 const ,__int64> > > > & const)
FUNC 2e3e0 250 0 struct std::pair<std::_List_iterator<std::_List_val<std::_List_simple_types<std::pair<unsigned __int64 const ,__int64> > > >,bool> std::_Hash<std::_Umap_traits<unsigned __int64,__int64,std::_Uhash_compare<unsigned __int64,std::hash<unsigned __int64>,std::equal_to<unsigned __int64> >,std::allocator<std::pair<unsigned __int64 const ,__int64> >,0> >::_Insert<std::pair<unsigned __int64 const ,__int64> &,std::_List_unchecked_iterator<std::_List_val<std::_List_simple_types<std::pair<unsigned __int64 const ,__int64> > > > >(struct std::pair<unsigned __int64 const ,__int64> & const, class std::_List_unchecked_iterator<std::_List_val<std::_List_simple_types<std::pair<unsigned __int64 const ,__int64> > > >)
FUNC 2e630 3 0 void fmt::v9::detail::check_format_string<char const *,char const * &,int &,`<lambda_8aeef12fa66d38aa39faff6b684766a5>::operator()'::`2'::FMT_COMPILE_STRING,0>(struct spdlog::logger::log_::__l10::<lambda_8aeef12fa66d38aa39faff6b684766a5>::()::__l2::FMT_COMPILE_STRING)
FUNC 2e640 1ad 0 static const char * fmt::v9::detail::do_parse_arg_id<char,`fmt::v9::detail::parse_replacement_field<char,`fmt::v9::detail::vformat_to<char>'::`2'::format_handler &>'::`2'::id_adapter &>(const char *, const char *, struct fmt::v9::detail::parse_replacement_field::__l2::id_adapter & const)
FUNC 2e7f0 10e 0 std::_Hash<std::_Umap_traits<unsigned __int64,__int64,std::_Uhash_compare<unsigned __int64,std::hash<unsigned __int64>,std::equal_to<unsigned __int64> >,std::allocator<std::pair<unsigned __int64 const ,__int64> >,0> >::erase<std::_List_iterator<std::_List_val<std::_List_simple_types<std::pair<unsigned __int64 const ,__int64> > > >,void>(std::_List_iterator<std::_List_val<std::_List_simple_types<std::pair<unsigned __int64 const ,__int64> > > >)
FUNC 2e900 30e 0 void spdlog::logger::log_<int const &,std::basic_string<char,std::char_traits<char>,std::allocator<char> > const &>(struct spdlog::source_loc, spdlog::level::level_enum, class fmt::v9::basic_string_view<char>, const int & const, const class std::basic_string<char,std::char_traits<char>,std::allocator<char> > & const)
FUNC 2ec10 1f1 0 static void fmt::v9::detail::parse_format_string<0,char,`fmt::v9::detail::vformat_to<char>'::`2'::format_handler>(class fmt::v9::basic_string_view<char>, struct fmt::v9::detail::vformat_to::__l2::format_handler *)
FUNC 2ee10 2c2 0 static const char * fmt::v9::detail::parse_replacement_field<char,`fmt::v9::detail::vformat_to<char>'::`2'::format_handler &>(const char *, const char *, struct fmt::v9::detail::vformat_to::__l2::format_handler & const)
FUNC 2f0e0 9e 0 std::this_thread::sleep_for<__int64,std::ratio<1,1000> >(std::chrono::duration<__int64,std::ratio<1,1000> > const &)
FUNC 2f180 1ab 0 static class fmt::v9::appender fmt::v9::detail::write_padded<1,fmt::v9::appender,char,<lambda_f0d60ed66238794a90114102aeb5a1b4> &>(class fmt::v9::appender, const struct fmt::v9::basic_format_specs<char> & const, unsigned __int64, unsigned __int64, class fmt::v9::detail::write_nonfinite::__l2::<lambda_f0d60ed66238794a90114102aeb5a1b4> & const)
FUNC 2f330 244 0 static class fmt::v9::appender fmt::v9::detail::write_padded<2,fmt::v9::appender,char,<lambda_0ca6edc684fc35c4b45207ef174d4463> &>(class fmt::v9::appender, const struct fmt::v9::basic_format_specs<char> & const, unsigned __int64, unsigned __int64, class fmt::v9::detail::do_write_float::__l30::<lambda_0ca6edc684fc35c4b45207ef174d4463> & const)
FUNC 2f580 163 0 static class fmt::v9::appender fmt::v9::detail::write_padded<2,fmt::v9::appender,char,<lambda_0fbc0216ad96246ebffbfcdd30dd8633> &>(class fmt::v9::appender, const struct fmt::v9::basic_format_specs<char> & const, unsigned __int64, unsigned __int64, class fmt::v9::detail::do_write_float::__l30::<lambda_0fbc0216ad96246ebffbfcdd30dd8633> & const)
FUNC 2f6f0 25b 0 static class fmt::v9::appender fmt::v9::detail::write_padded<2,fmt::v9::appender,char,<lambda_13f5d4fc3fad7c64eb2d6c58377a0e51> &>(class fmt::v9::appender, const struct fmt::v9::basic_format_specs<char> & const, unsigned __int64, unsigned __int64, class fmt::v9::detail::do_write_float::__l19::<lambda_13f5d4fc3fad7c64eb2d6c58377a0e51> & const)
FUNC 2f950 163 0 static class fmt::v9::appender fmt::v9::detail::write_padded<2,fmt::v9::appender,char,<lambda_185b85ea2437e56b2bc2aa7cdbe52456> &>(class fmt::v9::appender, const struct fmt::v9::basic_format_specs<char> & const, unsigned __int64, unsigned __int64, class fmt::v9::detail::do_write_float::__l19::<lambda_185b85ea2437e56b2bc2aa7cdbe52456> & const)
FUNC 2fac0 163 0 static class fmt::v9::appender fmt::v9::detail::write_padded<2,fmt::v9::appender,char,<lambda_282e41744f3088051fb1286cfbce3911> &>(class fmt::v9::appender, const struct fmt::v9::basic_format_specs<char> & const, unsigned __int64, unsigned __int64, class fmt::v9::detail::do_write_float::__l5::<lambda_282e41744f3088051fb1286cfbce3911> & const)
FUNC 2fc30 25b 0 static class fmt::v9::appender fmt::v9::detail::write_padded<2,fmt::v9::appender,char,<lambda_30f5bd671198ec1c919e798ee0530f7f> &>(class fmt::v9::appender, const struct fmt::v9::basic_format_specs<char> & const, unsigned __int64, unsigned __int64, class fmt::v9::detail::do_write_float::__l19::<lambda_30f5bd671198ec1c919e798ee0530f7f> & const)
FUNC 2fe90 163 0 static class fmt::v9::appender fmt::v9::detail::write_padded<2,fmt::v9::appender,char,<lambda_395fe25a59990ae20aafeccfb41739cc> &>(class fmt::v9::appender, const struct fmt::v9::basic_format_specs<char> & const, unsigned __int64, unsigned __int64, class fmt::v9::detail::do_write_float::__l5::<lambda_395fe25a59990ae20aafeccfb41739cc> & const)
FUNC 30000 244 0 static class fmt::v9::appender fmt::v9::detail::write_padded<2,fmt::v9::appender,char,<lambda_39b9acd80d3c92205299664f98c3177f> &>(class fmt::v9::appender, const struct fmt::v9::basic_format_specs<char> & const, unsigned __int64, unsigned __int64, class fmt::v9::detail::do_write_float::__l30::<lambda_39b9acd80d3c92205299664f98c3177f> & const)
FUNC 30250 163 0 static class fmt::v9::appender fmt::v9::detail::write_padded<2,fmt::v9::appender,char,<lambda_43a90c16962127f962b6b0c56cc31966> &>(class fmt::v9::appender, const struct fmt::v9::basic_format_specs<char> & const, unsigned __int64, unsigned __int64, class fmt::v9::detail::do_write_float::__l30::<lambda_43a90c16962127f962b6b0c56cc31966> & const)
FUNC 303c0 163 0 static class fmt::v9::appender fmt::v9::detail::write_padded<2,fmt::v9::appender,char,<lambda_468696d9521566528c114d51e4c9bef0> &>(class fmt::v9::appender, const struct fmt::v9::basic_format_specs<char> & const, unsigned __int64, unsigned __int64, class fmt::v9::detail::do_write_float::__l2::<lambda_468696d9521566528c114d51e4c9bef0> & const)
FUNC 30530 163 0 static class fmt::v9::appender fmt::v9::detail::write_padded<2,fmt::v9::appender,char,<lambda_4af39d647ae3f68c9da86a2d58e65c48> &>(class fmt::v9::appender, const struct fmt::v9::basic_format_specs<char> & const, unsigned __int64, unsigned __int64, class fmt::v9::detail::do_write_float::__l30::<lambda_4af39d647ae3f68c9da86a2d58e65c48> & const)
FUNC 306a0 163 0 static class fmt::v9::appender fmt::v9::detail::write_padded<2,fmt::v9::appender,char,<lambda_628610c82e2bc89ce172ac8638d5b184> &>(class fmt::v9::appender, const struct fmt::v9::basic_format_specs<char> & const, unsigned __int64, unsigned __int64, class fmt::v9::detail::do_write_float::__l19::<lambda_628610c82e2bc89ce172ac8638d5b184> & const)
FUNC 30810 163 0 static class fmt::v9::appender fmt::v9::detail::write_padded<2,fmt::v9::appender,char,<lambda_639c913efdddcae8c75eb0bacac0beac> &>(class fmt::v9::appender, const struct fmt::v9::basic_format_specs<char> & const, unsigned __int64, unsigned __int64, class fmt::v9::detail::do_write_float::__l2::<lambda_639c913efdddcae8c75eb0bacac0beac> & const)
FUNC 30980 163 0 static class fmt::v9::appender fmt::v9::detail::write_padded<2,fmt::v9::appender,char,<lambda_672599755fb5fa3b6c53b0a8710f05d2> &>(class fmt::v9::appender, const struct fmt::v9::basic_format_specs<char> & const, unsigned __int64, unsigned __int64, class fmt::v9::detail::do_write_float::__l5::<lambda_672599755fb5fa3b6c53b0a8710f05d2> & const)
FUNC 30af0 163 0 static class fmt::v9::appender fmt::v9::detail::write_padded<2,fmt::v9::appender,char,<lambda_6f1f005c1f6dcd7ddd0034fdf03b3617> &>(class fmt::v9::appender, const struct fmt::v9::basic_format_specs<char> & const, unsigned __int64, unsigned __int64, class fmt::v9::detail::do_write_float::__l2::<lambda_6f1f005c1f6dcd7ddd0034fdf03b3617> & const)
FUNC 30c60 163 0 static class fmt::v9::appender fmt::v9::detail::write_padded<2,fmt::v9::appender,char,<lambda_752f07ab4188c11848d696ced38aff62> &>(class fmt::v9::appender, const struct fmt::v9::basic_format_specs<char> & const, unsigned __int64, unsigned __int64, class fmt::v9::detail::do_write_float::__l5::<lambda_752f07ab4188c11848d696ced38aff62> & const)
FUNC 30dd0 25b 0 static class fmt::v9::appender fmt::v9::detail::write_padded<2,fmt::v9::appender,char,<lambda_7a50bb3301d712c3cfb844a011b20ed7> &>(class fmt::v9::appender, const struct fmt::v9::basic_format_specs<char> & const, unsigned __int64, unsigned __int64, class fmt::v9::detail::do_write_float::__l19::<lambda_7a50bb3301d712c3cfb844a011b20ed7> & const)
FUNC 31030 163 0 static class fmt::v9::appender fmt::v9::detail::write_padded<2,fmt::v9::appender,char,<lambda_89a07d7e2da7b7669b3546af81775824> &>(class fmt::v9::appender, const struct fmt::v9::basic_format_specs<char> & const, unsigned __int64, unsigned __int64, class fmt::v9::detail::do_write_float::__l30::<lambda_89a07d7e2da7b7669b3546af81775824> & const)
FUNC 311a0 163 0 static class fmt::v9::appender fmt::v9::detail::write_padded<2,fmt::v9::appender,char,<lambda_93b54d162729082e7efc8eb8e4ec70d5> &>(class fmt::v9::appender, const struct fmt::v9::basic_format_specs<char> & const, unsigned __int64, unsigned __int64, class fmt::v9::detail::do_write_float::__l5::<lambda_93b54d162729082e7efc8eb8e4ec70d5> & const)
FUNC 31310 163 0 static class fmt::v9::appender fmt::v9::detail::write_padded<2,fmt::v9::appender,char,<lambda_95b56a90530643c4ec068630691a16eb> &>(class fmt::v9::appender, const struct fmt::v9::basic_format_specs<char> & const, unsigned __int64, unsigned __int64, class fmt::v9::detail::do_write_float::__l2::<lambda_95b56a90530643c4ec068630691a16eb> & const)
FUNC 31480 163 0 static class fmt::v9::appender fmt::v9::detail::write_padded<2,fmt::v9::appender,char,<lambda_a255711b208076d13632284fa6a17b5e> &>(class fmt::v9::appender, const struct fmt::v9::basic_format_specs<char> & const, unsigned __int64, unsigned __int64, class fmt::v9::detail::do_write_float::__l5::<lambda_a255711b208076d13632284fa6a17b5e> & const)
FUNC 315f0 163 0 static class fmt::v9::appender fmt::v9::detail::write_padded<2,fmt::v9::appender,char,<lambda_af3c549a6db27f794c0429ed884d8ab5> &>(class fmt::v9::appender, const struct fmt::v9::basic_format_specs<char> & const, unsigned __int64, unsigned __int64, class fmt::v9::detail::do_write_float::__l2::<lambda_af3c549a6db27f794c0429ed884d8ab5> & const)
FUNC 31760 163 0 static class fmt::v9::appender fmt::v9::detail::write_padded<2,fmt::v9::appender,char,<lambda_cec19aafe469dbf0d1f786c55ec8ccfb> &>(class fmt::v9::appender, const struct fmt::v9::basic_format_specs<char> & const, unsigned __int64, unsigned __int64, class fmt::v9::detail::do_write_float::__l2::<lambda_cec19aafe469dbf0d1f786c55ec8ccfb> & const)
FUNC 318d0 163 0 static class fmt::v9::appender fmt::v9::detail::write_padded<2,fmt::v9::appender,char,<lambda_f8d3ab787727e80257bc49bb10c2bd4d> &>(class fmt::v9::appender, const struct fmt::v9::basic_format_specs<char> & const, unsigned __int64, unsigned __int64, class fmt::v9::detail::do_write_float::__l19::<lambda_f8d3ab787727e80257bc49bb10c2bd4d> & const)
FUNC 31a40 274 0 static class fmt::v9::appender fmt::v9::detail::write_padded<2,fmt::v9::appender,char,<lambda_fa026d778d2ccf6754aee563fdd0d25a> &>(class fmt::v9::appender, const struct fmt::v9::basic_format_specs<char> & const, unsigned __int64, unsigned __int64, class fmt::v9::detail::write_ptr::__l2::<lambda_fa026d778d2ccf6754aee563fdd0d25a> & const)
FUNC 31cc0 1cd 0 static class fmt::v9::appender fmt::v9::detail::write_padded<2,fmt::v9::appender,char,<lambda_5f923a2b9a4587d476d2d03a21dc1ae2> >(class fmt::v9::appender, const struct fmt::v9::basic_format_specs<char> & const, unsigned __int64, unsigned __int64, class fmt::v9::detail::write_int_localized::__l2::<lambda_5f923a2b9a4587d476d2d03a21dc1ae2> *)
FUNC 31e90 d6 0 next::sdk::events::EventPublisher::EventPublisher()
FUNC 31f70 de 0 next::sdk::events::EventTypesHookHelper<eCAL::CPublisher>::~EventTypesHookHelper<eCAL::CPublisher>()
FUNC 32050 72 0 std::list<std::pair<unsigned __int64 const ,__int64>,std::allocator<std::pair<unsigned __int64 const ,__int64> > >::~list<std::pair<unsigned __int64 const ,__int64>,std::allocator<std::pair<unsigned __int64 const ,__int64> > >()
FUNC 320d0 4b 0 std::shared_ptr<eCAL::CPublisher>::~shared_ptr<eCAL::CPublisher>()
FUNC 32120 66 0 std::vector<std::_List_unchecked_iterator<std::_List_val<std::_List_simple_types<std::pair<unsigned __int64 const ,__int64> > > >,std::allocator<std::_List_unchecked_iterator<std::_List_val<std::_List_simple_types<std::pair<unsigned __int64 const ,__int64> > > > > >::~vector<std::_List_unchecked_iterator<std::_List_val<std::_List_simple_types<std::pair<unsigned __int64 const ,__int64> > > >,std::allocator<std::_List_unchecked_iterator<std::_List_val<std::_List_simple_types<std::pair<unsigned __int64 const ,__int64> > > > > >()
FUNC 32190 aa 0 next::sdk::events::EventPublisher::~EventPublisher()
FUNC 32240 28 0 eCAL::STopicInformation::~STopicInformation()
FUNC 32270 12c 0 static class fmt::v9::appender <lambda_0fbc0216ad96246ebffbfcdd30dd8633>::operator()(class fmt::v9::appender)
FUNC 323a0 154 0 static class fmt::v9::appender <lambda_185b85ea2437e56b2bc2aa7cdbe52456>::operator()(class fmt::v9::appender)
FUNC 32500 14f 0 static class fmt::v9::appender <lambda_282e41744f3088051fb1286cfbce3911>::operator()(class fmt::v9::appender)
FUNC 32650 12b 0 static class fmt::v9::appender <lambda_395fe25a59990ae20aafeccfb41739cc>::operator()(class fmt::v9::appender)
FUNC 32780 29f 0 static class fmt::v9::appender <lambda_43a90c16962127f962b6b0c56cc31966>::operator()(class fmt::v9::appender)
FUNC 32a20 169 0 static class fmt::v9::appender <lambda_468696d9521566528c114d51e4c9bef0>::operator()(class fmt::v9::appender)
FUNC 32b90 22b 0 static class fmt::v9::appender <lambda_4af39d647ae3f68c9da86a2d58e65c48>::operator()(class fmt::v9::appender)
FUNC 32dc0 154 0 static class fmt::v9::appender <lambda_628610c82e2bc89ce172ac8638d5b184>::operator()(class fmt::v9::appender)
FUNC 32f20 169 0 static class fmt::v9::appender <lambda_639c913efdddcae8c75eb0bacac0beac>::operator()(class fmt::v9::appender)
FUNC 33090 12b 0 static class fmt::v9::appender <lambda_672599755fb5fa3b6c53b0a8710f05d2>::operator()(class fmt::v9::appender)
FUNC 331c0 169 0 static class fmt::v9::appender <lambda_6f1f005c1f6dcd7ddd0034fdf03b3617>::operator()(class fmt::v9::appender)
FUNC 33330 12b 0 static class fmt::v9::appender <lambda_752f07ab4188c11848d696ced38aff62>::operator()(class fmt::v9::appender)
FUNC 33460 22b 0 static class fmt::v9::appender <lambda_89a07d7e2da7b7669b3546af81775824>::operator()(class fmt::v9::appender)
FUNC 33690 14f 0 static class fmt::v9::appender <lambda_93b54d162729082e7efc8eb8e4ec70d5>::operator()(class fmt::v9::appender)
FUNC 337e0 169 0 static class fmt::v9::appender <lambda_95b56a90530643c4ec068630691a16eb>::operator()(class fmt::v9::appender)
FUNC 33950 12b 0 static class fmt::v9::appender <lambda_a255711b208076d13632284fa6a17b5e>::operator()(class fmt::v9::appender)
FUNC 33a80 15a 0 static class fmt::v9::appender <lambda_af3c549a6db27f794c0429ed884d8ab5>::operator()(class fmt::v9::appender)
FUNC 33be0 15a 0 static class fmt::v9::appender <lambda_cec19aafe469dbf0d1f786c55ec8ccfb>::operator()(class fmt::v9::appender)
FUNC 33d40 144 0 static class fmt::v9::appender <lambda_f8d3ab787727e80257bc49bb10c2bd4d>::operator()(class fmt::v9::appender)
FUNC 33e90 cd 0 static void `fmt::v9::detail::parse_format_string<0,char,`fmt::v9::detail::vformat_to<char>'::`2'::format_handler>'::`2'::writer::operator()(const char *, const char *)
FUNC 33f60 34 0 next::sdk::events::EventTypesHookHelper<eCAL::CPublisher>::`scalar deleting destructor'(unsigned int)
FUNC 33fa0 21 0 std::_Ref_count_obj<eCAL::CPublisher>::`scalar deleting destructor'(unsigned int)
FUNC 33fd0 cc 0 next::sdk::events::EventPublisher::`scalar deleting destructor'(unsigned int)
FUNC 340a0 4a7 0 next::sdk::events::EventPublisher::AddPublisher(std::basic_string<char,std::char_traits<char>,std::allocator<char> > const &,std::basic_string<char,std::char_traits<char>,std::allocator<char> > const &,bool)
FUNC 34550 108 0 next::sdk::events::EventTypesHookHelper<eCAL::CPublisher>::AddSubscriberAddedHook(next::sdk::events::RegisteredEvent const &)
FUNC 34660 114 0 next::sdk::events::EventTypesHookHelper<eCAL::CPublisher>::CheckHooksAdded(next::sdk::events::RegisteredEvent const &)
FUNC 34780 64 0 next::sdk::events::EventPublisher::DestroyEcalType(std::shared_ptr<eCAL::CPublisher>)
FUNC 347f0 4a 0 std::_List_alloc<std::_List_base_types<std::pair<unsigned __int64 const ,__int64>,std::allocator<std::pair<unsigned __int64 const ,__int64> > > >::_Buynode0(std::_List_node<std::pair<unsigned __int64 const ,__int64>,void *> *,std::_List_node<std::pair<unsigned __int64 const ,__int64>,void *> *)
FUNC 34840 12 0 std::_Ref_count_obj<eCAL::CPublisher>::_Delete_this()
FUNC 34860 d 0 std::_Ref_count_obj<eCAL::CPublisher>::_Destroy()
FUNC 34870 3c 0 std::_Hash<std::_Umap_traits<unsigned __int64,__int64,std::_Uhash_compare<unsigned __int64,std::hash<unsigned __int64>,std::equal_to<unsigned __int64> >,std::allocator<std::pair<unsigned __int64 const ,__int64> >,0> >::_Destroy_if_node(std::_List_unchecked_iterator<std::_List_val<std::_List_simple_types<std::pair<unsigned __int64 const ,__int64> > > >)
FUNC 348b0 4 0 std::_Vector_alloc<std::_Vec_base_types<std::_List_unchecked_iterator<std::_List_val<std::_List_simple_types<std::pair<unsigned __int64 const ,__int64> > > >,std::allocator<std::_List_unchecked_iterator<std::_List_val<std::_List_simple_types<std::pair<unsigned __int64 const ,__int64> > > > > > >::_Getal()
FUNC 348c0 188 0 std::_Hash<std::_Umap_traits<unsigned __int64,__int64,std::_Uhash_compare<unsigned __int64,std::hash<unsigned __int64>,std::equal_to<unsigned __int64> >,std::allocator<std::pair<unsigned __int64 const ,__int64> >,0> >::_Init(unsigned __int64)
FUNC 34a50 7 0 std::_Hash<std::_Umap_traits<unsigned __int64,__int64,std::_Uhash_compare<unsigned __int64,std::hash<unsigned __int64>,std::equal_to<unsigned __int64> >,std::allocator<std::pair<unsigned __int64 const ,__int64> >,0> >::_Make_iter(std::_List_unchecked_const_iterator<std::_List_val<std::_List_simple_types<std::pair<unsigned __int64 const ,__int64> > >,std::_Iterator_base0>)
FUNC 34a60 e4 0 std::vector<std::_List_unchecked_iterator<std::_List_val<std::_List_simple_types<std::pair<unsigned __int64 const ,__int64> > > >,std::allocator<std::_List_unchecked_iterator<std::_List_val<std::_List_simple_types<std::pair<unsigned __int64 const ,__int64> > > > > >::_Reallocate_exactly(unsigned __int64)
FUNC 34b50 11 0 std::vector<std::_List_unchecked_iterator<std::_List_val<std::_List_simple_types<std::pair<unsigned __int64 const ,__int64> > > >,std::allocator<std::_List_unchecked_iterator<std::_List_val<std::_List_simple_types<std::pair<unsigned __int64 const ,__int64> > > > > >::_Xlength()
FUNC 34b70 75 0 std::allocator<std::_List_unchecked_iterator<std::_List_val<std::_List_simple_types<std::pair<unsigned __int64 const ,__int64> > > > >::allocate(unsigned __int64)
FUNC 34bf0 42 0 void std::allocator<std::_List_node<std::pair<unsigned __int64 const ,__int64>,void *> >::deallocate(struct std::_List_node<std::pair<unsigned __int64 const ,__int64>,void *> *, const unsigned __int64)
FUNC 34c40 43 0 std::allocator<std::_List_unchecked_iterator<std::_List_val<std::_List_simple_types<std::pair<unsigned __int64 const ,__int64> > > > >::deallocate(std::_List_unchecked_iterator<std::_List_val<std::_List_simple_types<std::pair<unsigned __int64 const ,__int64> > > > * const,unsigned __int64)
FUNC 34c90 31e 0 next::sdk::events::EventPublisher::getNumberOfSubscribers(std::basic_string<char,std::char_traits<char>,std::allocator<char> > const &,std::basic_string<char,std::char_traits<char>,std::allocator<char> > const &)
FUNC 34fb0 166 0 next::sdk::events::EventPublisher::initialize(std::basic_string<char,std::char_traits<char>,std::allocator<char> > const &,std::basic_string<char,std::char_traits<char>,std::allocator<char> > const &,next::sdk::events::RegisteredEvent const &)
FUNC 35120 c2 0 next::sdk::events::EventTypesHookHelper<eCAL::CPublisher>::lookUpEcalType()
FUNC 351f0 255 0 next::sdk::events::EventPublisher::onListenerAdded(char const *,eCAL::SPubEventCallbackData const *)
FUNC 35450 d2 0 static void `fmt::v9::detail::vformat_to<char>'::`2'::format_handler::on_replacement_field(int, const char *)
FUNC 35530 53e 0 next::sdk::events::EventPublisher::publish(std::basic_string<char,std::char_traits<char>,std::allocator<char> > const &,std::basic_string<char,std::char_traits<char>,std::allocator<char> > const &,std::vector<unsigned char,std::allocator<unsigned char> > const &,next::sdk::events::RegisteredEvent const &,std::list<std::basic_string<char,std::char_traits<char>,std::allocator<char> >,std::allocator<std::basic_string<char,std::char_traits<char>,std::allocator<char> > > > &)
FUNC 35a70 19f 0 next::sdk::events::EventTypesHookHelper<eCAL::CPublisher>::reset()
FUNC 35c10 be 0 void std::_Tree<std::_Tmap_traits<unsigned __int64,std::function<void __cdecl(std::vector<unsigned char,std::allocator<unsigned char> > const &,std::basic_string<char,std::char_traits<char>,std::allocator<char> > &)>,std::less<unsigned __int64>,std::allocator<std::pair<unsigned __int64 const ,std::function<void __cdecl(std::vector<unsigned char,std::allocator<unsigned char> > const &,std::basic_string<char,std::char_traits<char>,std::allocator<char> > &)> > >,0> >::_Tree<std::_Tmap_traits<unsigned __int64,std::function<void __cdecl(std::vector<unsigned char,std::allocator<unsigned char> > const &,std::basic_string<char,std::char_traits<char>,std::allocator<char> > &)>,std::less<unsigned __int64>,std::allocator<std::pair<unsigned __int64 const ,std::function<void __cdecl(std::vector<unsigned char,std::allocator<unsigned char> > const &,std::basic_string<char,std::char_traits<char>,std::allocator<char> > &)> > >,0> ><std::allocator<std::_Tree_node<std::pair<unsigned __int64 const ,std::function<void __cdecl(std::vector<unsigned char,std::allocator<unsigned char> > const &,std::basic_string<char,std::char_traits<char>,std::allocator<char> > &)> >,void *> > >(const class std::_Tree<std::_Tmap_traits<unsigned __int64,std::function<void __cdecl(std::vector<unsigned char,std::allocator<unsigned char> > const &,std::basic_string<char,std::char_traits<char>,std::allocator<char> > &)>,std::less<unsigned __int64>,std::allocator<std::pair<unsigned __int64 const ,std::function<void __cdecl(std::vector<unsigned char,std::allocator<unsigned char> > const &,std::basic_string<char,std::char_traits<char>,std::allocator<char> > &)> > >,0> > & const, class std::allocator<std::_Tree_node<std::pair<unsigned __int64 const ,std::function<void __cdecl(std::vector<unsigned char,std::allocator<unsigned char> > const &,std::basic_string<char,std::char_traits<char>,std::allocator<char> > &)> >,void *> > *)
FUNC 35cd0 be 0 void std::_Tree<std::_Tmap_traits<unsigned __int64,std::function<void __cdecl(std::vector<unsigned char,std::allocator<unsigned char> > const &,__int64,__int64)>,std::less<unsigned __int64>,std::allocator<std::pair<unsigned __int64 const ,std::function<void __cdecl(std::vector<unsigned char,std::allocator<unsigned char> > const &,__int64,__int64)> > >,0> >::_Tree<std::_Tmap_traits<unsigned __int64,std::function<void __cdecl(std::vector<unsigned char,std::allocator<unsigned char> > const &,__int64,__int64)>,std::less<unsigned __int64>,std::allocator<std::pair<unsigned __int64 const ,std::function<void __cdecl(std::vector<unsigned char,std::allocator<unsigned char> > const &,__int64,__int64)> > >,0> ><std::allocator<std::_Tree_node<std::pair<unsigned __int64 const ,std::function<void __cdecl(std::vector<unsigned char,std::allocator<unsigned char> > const &,__int64,__int64)> >,void *> > >(const class std::_Tree<std::_Tmap_traits<unsigned __int64,std::function<void __cdecl(std::vector<unsigned char,std::allocator<unsigned char> > const &,__int64,__int64)>,std::less<unsigned __int64>,std::allocator<std::pair<unsigned __int64 const ,std::function<void __cdecl(std::vector<unsigned char,std::allocator<unsigned char> > const &,__int64,__int64)> > >,0> > & const, class std::allocator<std::_Tree_node<std::pair<unsigned __int64 const ,std::function<void __cdecl(std::vector<unsigned char,std::allocator<unsigned char> > const &,__int64,__int64)> >,void *> > *)
FUNC 35d90 63 0 struct std::_Tree_node<std::pair<unsigned __int64 const ,std::function<void __cdecl(std::vector<unsigned char,std::allocator<unsigned char> > const &,std::basic_string<char,std::char_traits<char>,std::allocator<char> > &)> >,void *> * std::_Tree_comp_alloc<std::_Tmap_traits<unsigned __int64,std::function<void __cdecl(std::vector<unsigned char,std::allocator<unsigned char> > const &,std::basic_string<char,std::char_traits<char>,std::allocator<char> > &)>,std::less<unsigned __int64>,std::allocator<std::pair<unsigned __int64 const ,std::function<void __cdecl(std::vector<unsigned char,std::allocator<unsigned char> > const &,std::basic_string<char,std::char_traits<char>,std::allocator<char> > &)> > >,0> >::_Buynode<std::pair<unsigned __int64 const ,std::function<void __cdecl(std::vector<unsigned char,std::allocator<unsigned char> > const &,std::basic_string<char,std::char_traits<char>,std::allocator<char> > &)> > &>(struct std::pair<unsigned __int64 const ,std::function<void __cdecl(std::vector<unsigned char,std::allocator<unsigned char> > const &,std::basic_string<char,std::char_traits<char>,std::allocator<char> > &)> > & const)
FUNC 35e00 63 0 struct std::_Tree_node<std::pair<unsigned __int64 const ,std::function<void __cdecl(std::vector<unsigned char,std::allocator<unsigned char> > const &,__int64,__int64)> >,void *> * std::_Tree_comp_alloc<std::_Tmap_traits<unsigned __int64,std::function<void __cdecl(std::vector<unsigned char,std::allocator<unsigned char> > const &,__int64,__int64)>,std::less<unsigned __int64>,std::allocator<std::pair<unsigned __int64 const ,std::function<void __cdecl(std::vector<unsigned char,std::allocator<unsigned char> > const &,__int64,__int64)> > >,0> >::_Buynode<std::pair<unsigned __int64 const ,std::function<void __cdecl(std::vector<unsigned char,std::allocator<unsigned char> > const &,__int64,__int64)> > &>(struct std::pair<unsigned __int64 const ,std::function<void __cdecl(std::vector<unsigned char,std::allocator<unsigned char> > const &,__int64,__int64)> > & const)
FUNC 35e70 90 0 struct std::_Tree_node<std::pair<unsigned __int64 const ,std::function<void __cdecl(std::vector<unsigned char,std::allocator<unsigned char> > const &,std::basic_string<char,std::char_traits<char>,std::allocator<char> > &)> >,void *> * std::_Tree_comp_alloc<std::_Tmap_traits<unsigned __int64,std::function<void __cdecl(std::vector<unsigned char,std::allocator<unsigned char> > const &,std::basic_string<char,std::char_traits<char>,std::allocator<char> > &)>,std::less<unsigned __int64>,std::allocator<std::pair<unsigned __int64 const ,std::function<void __cdecl(std::vector<unsigned char,std::allocator<unsigned char> > const &,std::basic_string<char,std::char_traits<char>,std::allocator<char> > &)> > >,0> >::_Buynode<std::pair<unsigned __int64 const ,std::function<void __cdecl(std::vector<unsigned char,std::allocator<unsigned char> > const &,std::basic_string<char,std::char_traits<char>,std::allocator<char> > &)> > >(struct std::pair<unsigned __int64 const ,std::function<void __cdecl(std::vector<unsigned char,std::allocator<unsigned char> > const &,std::basic_string<char,std::char_traits<char>,std::allocator<char> > &)> > *)
FUNC 35f00 90 0 struct std::_Tree_node<std::pair<unsigned __int64 const ,std::function<void __cdecl(std::vector<unsigned char,std::allocator<unsigned char> > const &,__int64,__int64)> >,void *> * std::_Tree_comp_alloc<std::_Tmap_traits<unsigned __int64,std::function<void __cdecl(std::vector<unsigned char,std::allocator<unsigned char> > const &,__int64,__int64)>,std::less<unsigned __int64>,std::allocator<std::pair<unsigned __int64 const ,std::function<void __cdecl(std::vector<unsigned char,std::allocator<unsigned char> > const &,__int64,__int64)> > >,0> >::_Buynode<std::pair<unsigned __int64 const ,std::function<void __cdecl(std::vector<unsigned char,std::allocator<unsigned char> > const &,__int64,__int64)> > >(struct std::pair<unsigned __int64 const ,std::function<void __cdecl(std::vector<unsigned char,std::allocator<unsigned char> > const &,__int64,__int64)> > *)
FUNC 35f90 9b 0 struct std::_Tree_node<std::pair<unsigned __int64 const ,std::function<void __cdecl(std::vector<unsigned char,std::allocator<unsigned char> > const &,std::basic_string<char,std::char_traits<char>,std::allocator<char> > &)> >,void *> * std::_Tree<std::_Tmap_traits<unsigned __int64,std::function<void __cdecl(std::vector<unsigned char,std::allocator<unsigned char> > const &,std::basic_string<char,std::char_traits<char>,std::allocator<char> > &)>,std::less<unsigned __int64>,std::allocator<std::pair<unsigned __int64 const ,std::function<void __cdecl(std::vector<unsigned char,std::allocator<unsigned char> > const &,std::basic_string<char,std::char_traits<char>,std::allocator<char> > &)> > >,0> >::_Copy_nodes<std::_Tree<std::_Tmap_traits<unsigned __int64,std::function<void __cdecl(std::vector<unsigned char,std::allocator<unsigned char> > const &,std::basic_string<char,std::char_traits<char>,std::allocator<char> > &)>,std::less<unsigned __int64>,std::allocator<std::pair<unsigned __int64 const ,std::function<void __cdecl(std::vector<unsigned char,std::allocator<unsigned char> > const &,std::basic_string<char,std::char_traits<char>,std::allocator<char> > &)> > >,0> >::_Copy_tag>(struct std::_Tree_node<std::pair<unsigned __int64 const ,std::function<void __cdecl(std::vector<unsigned char,std::allocator<unsigned char> > const &,std::basic_string<char,std::char_traits<char>,std::allocator<char> > &)> >,void *> *, struct std::_Tree_node<std::pair<unsigned __int64 const ,std::function<void __cdecl(std::vector<unsigned char,std::allocator<unsigned char> > const &,std::basic_string<char,std::char_traits<char>,std::allocator<char> > &)> >,void *> *, struct std::_Tree<std::_Tmap_traits<unsigned __int64,std::function<void __cdecl(std::vector<unsigned char,std::allocator<unsigned char> > const &,std::basic_string<char,std::char_traits<char>,std::allocator<char> > &)>,std::less<unsigned __int64>,std::allocator<std::pair<unsigned __int64 const ,std::function<void __cdecl(std::vector<unsigned char,std::allocator<unsigned char> > const &,std::basic_string<char,std::char_traits<char>,std::allocator<char> > &)> > >,0> >::_Copy_tag)
FUNC 36030 9b 0 struct std::_Tree_node<std::pair<unsigned __int64 const ,std::function<void __cdecl(std::vector<unsigned char,std::allocator<unsigned char> > const &,__int64,__int64)> >,void *> * std::_Tree<std::_Tmap_traits<unsigned __int64,std::function<void __cdecl(std::vector<unsigned char,std::allocator<unsigned char> > const &,__int64,__int64)>,std::less<unsigned __int64>,std::allocator<std::pair<unsigned __int64 const ,std::function<void __cdecl(std::vector<unsigned char,std::allocator<unsigned char> > const &,__int64,__int64)> > >,0> >::_Copy_nodes<std::_Tree<std::_Tmap_traits<unsigned __int64,std::function<void __cdecl(std::vector<unsigned char,std::allocator<unsigned char> > const &,__int64,__int64)>,std::less<unsigned __int64>,std::allocator<std::pair<unsigned __int64 const ,std::function<void __cdecl(std::vector<unsigned char,std::allocator<unsigned char> > const &,__int64,__int64)> > >,0> >::_Copy_tag>(struct std::_Tree_node<std::pair<unsigned __int64 const ,std::function<void __cdecl(std::vector<unsigned char,std::allocator<unsigned char> > const &,__int64,__int64)> >,void *> *, struct std::_Tree_node<std::pair<unsigned __int64 const ,std::function<void __cdecl(std::vector<unsigned char,std::allocator<unsigned char> > const &,__int64,__int64)> >,void *> *, struct std::_Tree<std::_Tmap_traits<unsigned __int64,std::function<void __cdecl(std::vector<unsigned char,std::allocator<unsigned char> > const &,__int64,__int64)>,std::less<unsigned __int64>,std::allocator<std::pair<unsigned __int64 const ,std::function<void __cdecl(std::vector<unsigned char,std::allocator<unsigned char> > const &,__int64,__int64)> > >,0> >::_Copy_tag)
FUNC 360d0 3 0 std::_Enable_shared_from_this1<eCAL::CServiceServer,eCAL::CServiceServer>(std::shared_ptr<eCAL::CServiceServer> const &,eCAL::CServiceServer *,std::integral_constant<bool,0>)
FUNC 360e0 3 0 std::_Enable_shared_from_this<eCAL::CServiceServer,eCAL::CServiceServer>(std::shared_ptr<eCAL::CServiceServer> const &,eCAL::CServiceServer *)
FUNC 360f0 290 0 class std::_Tree_iterator<std::_Tree_val<std::_Tree_simple_types<std::pair<unsigned __int64 const ,std::function<void __cdecl(std::vector<unsigned char,std::allocator<unsigned char> > const &,std::basic_string<char,std::char_traits<char>,std::allocator<char> > &)> > > > > std::_Tree<std::_Tmap_traits<unsigned __int64,std::function<void __cdecl(std::vector<unsigned char,std::allocator<unsigned char> > const &,std::basic_string<char,std::char_traits<char>,std::allocator<char> > &)>,std::less<unsigned __int64>,std::allocator<std::pair<unsigned __int64 const ,std::function<void __cdecl(std::vector<unsigned char,std::allocator<unsigned char> > const &,std::basic_string<char,std::char_traits<char>,std::allocator<char> > &)> > >,0> >::_Insert_at<std::pair<unsigned __int64 const ,std::function<void __cdecl(std::vector<unsigned char,std::allocator<unsigned char> > const &,std::basic_string<char,std::char_traits<char>,std::allocator<char> > &)> >,std::_Not_a_node_tag>(bool, struct std::_Tree_node<std::pair<unsigned __int64 const ,std::function<void __cdecl(std::vector<unsigned char,std::allocator<unsigned char> > const &,std::basic_string<char,std::char_traits<char>,std::allocator<char> > &)> >,void *> *, struct std::pair<unsigned __int64 const ,std::function<void __cdecl(std::vector<unsigned char,std::allocator<unsigned char> > const &,std::basic_string<char,std::char_traits<char>,std::allocator<char> > &)> > *, struct std::_Not_a_node_tag)
FUNC 36380 290 0 class std::_Tree_iterator<std::_Tree_val<std::_Tree_simple_types<std::pair<unsigned __int64 const ,std::function<void __cdecl(std::vector<unsigned char,std::allocator<unsigned char> > const &,__int64,__int64)> > > > > std::_Tree<std::_Tmap_traits<unsigned __int64,std::function<void __cdecl(std::vector<unsigned char,std::allocator<unsigned char> > const &,__int64,__int64)>,std::less<unsigned __int64>,std::allocator<std::pair<unsigned __int64 const ,std::function<void __cdecl(std::vector<unsigned char,std::allocator<unsigned char> > const &,__int64,__int64)> > >,0> >::_Insert_at<std::pair<unsigned __int64 const ,std::function<void __cdecl(std::vector<unsigned char,std::allocator<unsigned char> > const &,__int64,__int64)> >,std::_Not_a_node_tag>(bool, struct std::_Tree_node<std::pair<unsigned __int64 const ,std::function<void __cdecl(std::vector<unsigned char,std::allocator<unsigned char> > const &,__int64,__int64)> >,void *> *, struct std::pair<unsigned __int64 const ,std::function<void __cdecl(std::vector<unsigned char,std::allocator<unsigned char> > const &,__int64,__int64)> > *, struct std::_Not_a_node_tag)
FUNC 36610 15b 0 struct std::pair<std::_Tree_iterator<std::_Tree_val<std::_Tree_simple_types<std::pair<unsigned __int64 const ,std::function<void __cdecl(std::vector<unsigned char,std::allocator<unsigned char> > const &,std::basic_string<char,std::char_traits<char>,std::allocator<char> > &)> > > > >,bool> std::_Tree<std::_Tmap_traits<unsigned __int64,std::function<void __cdecl(std::vector<unsigned char,std::allocator<unsigned char> > const &,std::basic_string<char,std::char_traits<char>,std::allocator<char> > &)>,std::less<unsigned __int64>,std::allocator<std::pair<unsigned __int64 const ,std::function<void __cdecl(std::vector<unsigned char,std::allocator<unsigned char> > const &,std::basic_string<char,std::char_traits<char>,std::allocator<char> > &)> > >,0> >::_Insert_nohint<std::pair<unsigned __int64 const ,std::function<void __cdecl(std::vector<unsigned char,std::allocator<unsigned char> > const &,std::basic_string<char,std::char_traits<char>,std::allocator<char> > &)> >,std::_Not_a_node_tag>(bool, struct std::pair<unsigned __int64 const ,std::function<void __cdecl(std::vector<unsigned char,std::allocator<unsigned char> > const &,std::basic_string<char,std::char_traits<char>,std::allocator<char> > &)> > *, struct std::_Not_a_node_tag)
FUNC 36770 15b 0 struct std::pair<std::_Tree_iterator<std::_Tree_val<std::_Tree_simple_types<std::pair<unsigned __int64 const ,std::function<void __cdecl(std::vector<unsigned char,std::allocator<unsigned char> > const &,__int64,__int64)> > > > >,bool> std::_Tree<std::_Tmap_traits<unsigned __int64,std::function<void __cdecl(std::vector<unsigned char,std::allocator<unsigned char> > const &,__int64,__int64)>,std::less<unsigned __int64>,std::allocator<std::pair<unsigned __int64 const ,std::function<void __cdecl(std::vector<unsigned char,std::allocator<unsigned char> > const &,__int64,__int64)> > >,0> >::_Insert_nohint<std::pair<unsigned __int64 const ,std::function<void __cdecl(std::vector<unsigned char,std::allocator<unsigned char> > const &,__int64,__int64)> >,std::_Not_a_node_tag>(bool, struct std::pair<unsigned __int64 const ,std::function<void __cdecl(std::vector<unsigned char,std::allocator<unsigned char> > const &,__int64,__int64)> > *, struct std::_Not_a_node_tag)
FUNC 368d0 8 0 std::_Ptr_copy_cat<char const ,unsigned char>(char const * const &,unsigned char * const &)
FUNC 368e0 e5 0 void std::vector<unsigned char,std::allocator<unsigned char> >::_Range_construct_or_tidy<char const *>(const char *, const char *, struct std::forward_iterator_tag)
FUNC 369d0 d0 0 next::sdk::events::EventServer::EventServer()
FUNC 36aa0 de 0 next::sdk::events::EventTypesHookHelper<eCAL::CServiceServer>::~EventTypesHookHelper<eCAL::CServiceServer>()
FUNC 36b80 2c 0 void std::_Func_class<void,std::vector<unsigned char,std::allocator<unsigned char> > const &,std::basic_string<char,std::char_traits<char>,std::allocator<char> > &>::~_Func_class<void,std::vector<unsigned char,std::allocator<unsigned char> > const &,std::basic_string<char,std::char_traits<char>,std::allocator<char> > &>()
FUNC 36bb0 2c 0 void std::_Func_class<void,std::vector<unsigned char,std::allocator<unsigned char> > const &,__int64,__int64>::~_Func_class<void,std::vector<unsigned char,std::allocator<unsigned char> > const &,__int64,__int64>()
FUNC 36be0 20 0 void std::_Tree_comp_alloc<std::_Tmap_traits<unsigned __int64,std::function<void __cdecl(std::vector<unsigned char,std::allocator<unsigned char> > const &,std::basic_string<char,std::char_traits<char>,std::allocator<char> > &)>,std::less<unsigned __int64>,std::allocator<std::pair<unsigned __int64 const ,std::function<void __cdecl(std::vector<unsigned char,std::allocator<unsigned char> > const &,std::basic_string<char,std::char_traits<char>,std::allocator<char> > &)> > >,0> >::~_Tree_comp_alloc<std::_Tmap_traits<unsigned __int64,std::function<void __cdecl(std::vector<unsigned char,std::allocator<unsigned char> > const &,std::basic_string<char,std::char_traits<char>,std::allocator<char> > &)>,std::less<unsigned __int64>,std::allocator<std::pair<unsigned __int64 const ,std::function<void __cdecl(std::vector<unsigned char,std::allocator<unsigned char> > const &,std::basic_string<char,std::char_traits<char>,std::allocator<char> > &)> > >,0> >()
FUNC 36c00 20 0 void std::_Tree_comp_alloc<std::_Tmap_traits<unsigned __int64,std::function<void __cdecl(std::vector<unsigned char,std::allocator<unsigned char> > const &,__int64,__int64)>,std::less<unsigned __int64>,std::allocator<std::pair<unsigned __int64 const ,std::function<void __cdecl(std::vector<unsigned char,std::allocator<unsigned char> > const &,__int64,__int64)> > >,0> >::~_Tree_comp_alloc<std::_Tmap_traits<unsigned __int64,std::function<void __cdecl(std::vector<unsigned char,std::allocator<unsigned char> > const &,__int64,__int64)>,std::less<unsigned __int64>,std::allocator<std::pair<unsigned __int64 const ,std::function<void __cdecl(std::vector<unsigned char,std::allocator<unsigned char> > const &,__int64,__int64)> > >,0> >()
FUNC 36c20 2c 0 void std::function<int __cdecl(std::basic_string<char,std::char_traits<char>,std::allocator<char> > const &,std::basic_string<char,std::char_traits<char>,std::allocator<char> > const &,std::basic_string<char,std::char_traits<char>,std::allocator<char> > const &,std::basic_string<char,std::char_traits<char>,std::allocator<char> > const &,std::basic_string<char,std::char_traits<char>,std::allocator<char> > &)>::~function<int __cdecl(std::basic_string<char,std::char_traits<char>,std::allocator<char> > const &,std::basic_string<char,std::char_traits<char>,std::allocator<char> > const &,std::basic_string<char,std::char_traits<char>,std::allocator<char> > const &,std::basic_string<char,std::char_traits<char>,std::allocator<char> > const &,std::basic_string<char,std::char_traits<char>,std::allocator<char> > &)>()
FUNC 36c50 2d 0 void std::pair<unsigned __int64 const ,std::function<void __cdecl(std::vector<unsigned char,std::allocator<unsigned char> > const &,std::basic_string<char,std::char_traits<char>,std::allocator<char> > &)> >::~pair<unsigned __int64 const ,std::function<void __cdecl(std::vector<unsigned char,std::allocator<unsigned char> > const &,std::basic_string<char,std::char_traits<char>,std::allocator<char> > &)> >()
FUNC 36c80 2d 0 void std::pair<unsigned __int64 const ,std::function<void __cdecl(std::vector<unsigned char,std::allocator<unsigned char> > const &,__int64,__int64)> >::~pair<unsigned __int64 const ,std::function<void __cdecl(std::vector<unsigned char,std::allocator<unsigned char> > const &,__int64,__int64)> >()
FUNC 36cb0 4b 0 std::shared_ptr<eCAL::CServiceServer>::~shared_ptr<eCAL::CServiceServer>()
FUNC 36d00 62 0 std::vector<unsigned char,std::allocator<unsigned char> >::~vector<unsigned char,std::allocator<unsigned char> >()
FUNC 36d70 37 0 next::sdk::events::EventServer::~EventServer()
FUNC 36db0 34 0 next::sdk::events::EventTypesHookHelper<eCAL::CServiceServer>::`scalar deleting destructor'(unsigned int)
FUNC 36df0 21 0 std::_Ref_count_obj<eCAL::CServiceServer>::`scalar deleting destructor'(unsigned int)
FUNC 36e20 5b 0 next::sdk::events::EventServer::`scalar deleting destructor'(unsigned int)
FUNC 36e80 180 0 next::sdk::events::EventTypesHookHelper<eCAL::CServiceServer>::AddEventReceived(next::sdk::events::RegisteredEvent const &)
FUNC 37000 432 0 next::sdk::events::EventServer::AddServer(std::basic_string<char,std::char_traits<char>,std::allocator<char> > const &,std::basic_string<char,std::char_traits<char>,std::allocator<char> > const &)
FUNC 37440 108 0 next::sdk::events::EventTypesHookHelper<eCAL::CServiceServer>::AddSubscriberAddedHook(next::sdk::events::RegisteredEvent const &)
FUNC 37550 114 0 next::sdk::events::EventTypesHookHelper<eCAL::CServiceServer>::CheckHooksAdded(next::sdk::events::RegisteredEvent const &)
FUNC 37670 64 0 next::sdk::events::EventServer::DestroyEcalType(std::shared_ptr<eCAL::CServiceServer>)
FUNC 376e0 3f 0 struct std::_Tree_node<std::pair<unsigned __int64 const ,std::function<void __cdecl(std::vector<unsigned char,std::allocator<unsigned char> > const &,std::basic_string<char,std::char_traits<char>,std::allocator<char> > &)> >,void *> * std::_Tree_comp_alloc<std::_Tmap_traits<unsigned __int64,std::function<void __cdecl(std::vector<unsigned char,std::allocator<unsigned char> > const &,std::basic_string<char,std::char_traits<char>,std::allocator<char> > &)>,std::less<unsigned __int64>,std::allocator<std::pair<unsigned __int64 const ,std::function<void __cdecl(std::vector<unsigned char,std::allocator<unsigned char> > const &,std::basic_string<char,std::char_traits<char>,std::allocator<char> > &)> > >,0> >::_Buynode0()
FUNC 37720 3f 0 struct std::_Tree_node<std::pair<unsigned __int64 const ,std::function<void __cdecl(std::vector<unsigned char,std::allocator<unsigned char> > const &,__int64,__int64)> >,void *> * std::_Tree_comp_alloc<std::_Tmap_traits<unsigned __int64,std::function<void __cdecl(std::vector<unsigned char,std::allocator<unsigned char> > const &,__int64,__int64)>,std::less<unsigned __int64>,std::allocator<std::pair<unsigned __int64 const ,std::function<void __cdecl(std::vector<unsigned char,std::allocator<unsigned char> > const &,__int64,__int64)> > >,0> >::_Buynode0()
FUNC 37760 41 0 class std::_Func_base<int,std::basic_string<char,std::char_traits<char>,std::allocator<char> > const &,std::basic_string<char,std::char_traits<char>,std::allocator<char> > const &,std::basic_string<char,std::char_traits<char>,std::allocator<char> > const &,std::basic_string<char,std::char_traits<char>,std::allocator<char> > const &,std::basic_string<char,std::char_traits<char>,std::allocator<char> > &> * std::_Func_impl_no_alloc<std::_Binder<std::_Unforced,int (__cdecl next::sdk::events::EventServer::*)(std::basic_string<char,std::char_traits<char>,std::allocator<char> > const &,std::basic_string<char,std::char_traits<char>,std::allocator<char> > const &,std::basic_string<char,std::char_traits<char>,std::allocator<char> > const &,std::basic_string<char,std::char_traits<char>,std::allocator<char> > const &,std::basic_string<char,std::char_traits<char>,std::allocator<char> > &),next::sdk::events::EventServer *,std::_Ph<1> const &,std::_Ph<2> const &,std::_Ph<3> const &,std::_Ph<4> const &,std::_Ph<5> const &>,int,std::basic_string<char,std::char_traits<char>,std::allocator<char> > const &,std::basic_string<char,std::char_traits<char>,std::allocator<char> > const &,std::basic_string<char,std::char_traits<char>,std::allocator<char> > const &,std::basic_string<char,std::char_traits<char>,std::allocator<char> > const &,std::basic_string<char,std::char_traits<char>,std::allocator<char> > &>::_Copy(void *)
FUNC 377b0 2c 0 class std::_Func_base<void,char const *,eCAL::SServerEventCallbackData const *> * std::_Func_impl_no_alloc<std::_Binder<std::_Unforced,void (__cdecl next::sdk::events::EventServer::*)(char const *,eCAL::SServerEventCallbackData const *),next::sdk::events::EventServer *,std::_Ph<1> const &,std::_Ph<2> const &>,void,char const *,eCAL::SServerEventCallbackData const *>::_Copy(void *)
FUNC 377e0 21 0 void std::_Func_impl_no_alloc<std::_Binder<std::_Unforced,int (__cdecl next::sdk::events::EventServer::*)(std::basic_string<char,std::char_traits<char>,std::allocator<char> > const &,std::basic_string<char,std::char_traits<char>,std::allocator<char> > const &,std::basic_string<char,std::char_traits<char>,std::allocator<char> > const &,std::basic_string<char,std::char_traits<char>,std::allocator<char> > const &,std::basic_string<char,std::char_traits<char>,std::allocator<char> > &),next::sdk::events::EventServer *,std::_Ph<1> const &,std::_Ph<2> const &,std::_Ph<3> const &,std::_Ph<4> const &,std::_Ph<5> const &>,int,std::basic_string<char,std::char_traits<char>,std::allocator<char> > const &,std::basic_string<char,std::char_traits<char>,std::allocator<char> > const &,std::basic_string<char,std::char_traits<char>,std::allocator<char> > const &,std::basic_string<char,std::char_traits<char>,std::allocator<char> > const &,std::basic_string<char,std::char_traits<char>,std::allocator<char> > &>::_Delete_this(bool)
FUNC 37810 21 0 void std::_Func_impl_no_alloc<std::_Binder<std::_Unforced,void (__cdecl next::sdk::events::EventServer::*)(char const *,eCAL::SServerEventCallbackData const *),next::sdk::events::EventServer *,std::_Ph<1> const &,std::_Ph<2> const &>,void,char const *,eCAL::SServerEventCallbackData const *>::_Delete_this(bool)
FUNC 37840 12 0 std::_Ref_count_obj<eCAL::CServiceServer>::_Delete_this()
FUNC 37860 d 0 std::_Ref_count_obj<eCAL::CServiceServer>::_Destroy()
FUNC 37870 b 0 int std::_Func_impl_no_alloc<std::_Binder<std::_Unforced,int (__cdecl next::sdk::events::EventServer::*)(std::basic_string<char,std::char_traits<char>,std::allocator<char> > const &,std::basic_string<char,std::char_traits<char>,std::allocator<char> > const &,std::basic_string<char,std::char_traits<char>,std::allocator<char> > const &,std::basic_string<char,std::char_traits<char>,std::allocator<char> > const &,std::basic_string<char,std::char_traits<char>,std::allocator<char> > &),next::sdk::events::EventServer *,std::_Ph<1> const &,std::_Ph<2> const &,std::_Ph<3> const &,std::_Ph<4> const &,std::_Ph<5> const &>,int,std::basic_string<char,std::char_traits<char>,std::allocator<char> > const &,std::basic_string<char,std::char_traits<char>,std::allocator<char> > const &,std::basic_string<char,std::char_traits<char>,std::allocator<char> > const &,std::basic_string<char,std::char_traits<char>,std::allocator<char> > const &,std::basic_string<char,std::char_traits<char>,std::allocator<char> > &>::_Do_call(const class std::basic_string<char,std::char_traits<char>,std::allocator<char> > & const, const class std::basic_string<char,std::char_traits<char>,std::allocator<char> > & const, const class std::basic_string<char,std::char_traits<char>,std::allocator<char> > & const, const class std::basic_string<char,std::char_traits<char>,std::allocator<char> > & const, class std::basic_string<char,std::char_traits<char>,std::allocator<char> > & const)
FUNC 37880 11 0 void std::_Func_impl_no_alloc<std::_Binder<std::_Unforced,void (__cdecl next::sdk::events::EventServer::*)(char const *,eCAL::SServerEventCallbackData const *),next::sdk::events::EventServer *,std::_Ph<1> const &,std::_Ph<2> const &>,void,char const *,eCAL::SServerEventCallbackData const *>::_Do_call(const char * *, const struct eCAL::SServerEventCallbackData * *)
FUNC 378a0 20 0 void std::_Tree_comp_alloc<std::_Tmap_traits<unsigned __int64,std::function<void __cdecl(std::vector<unsigned char,std::allocator<unsigned char> > const &,std::basic_string<char,std::char_traits<char>,std::allocator<char> > &)>,std::less<unsigned __int64>,std::allocator<std::pair<unsigned __int64 const ,std::function<void __cdecl(std::vector<unsigned char,std::allocator<unsigned char> > const &,std::basic_string<char,std::char_traits<char>,std::allocator<char> > &)> > >,0> >::_Freenode0(struct std::_Tree_node<std::pair<unsigned __int64 const ,std::function<void __cdecl(std::vector<unsigned char,std::allocator<unsigned char> > const &,std::basic_string<char,std::char_traits<char>,std::allocator<char> > &)> >,void *> *)
FUNC 378c0 20 0 void std::_Tree_comp_alloc<std::_Tmap_traits<unsigned __int64,std::function<void __cdecl(std::vector<unsigned char,std::allocator<unsigned char> > const &,__int64,__int64)>,std::less<unsigned __int64>,std::allocator<std::pair<unsigned __int64 const ,std::function<void __cdecl(std::vector<unsigned char,std::allocator<unsigned char> > const &,__int64,__int64)> > >,0> >::_Freenode0(struct std::_Tree_node<std::pair<unsigned __int64 const ,std::function<void __cdecl(std::vector<unsigned char,std::allocator<unsigned char> > const &,__int64,__int64)> >,void *> *)
FUNC 378e0 5 0 const void * std::_Func_impl_no_alloc<std::_Binder<std::_Unforced,int (__cdecl next::sdk::events::EventServer::*)(std::basic_string<char,std::char_traits<char>,std::allocator<char> > const &,std::basic_string<char,std::char_traits<char>,std::allocator<char> > const &,std::basic_string<char,std::char_traits<char>,std::allocator<char> > const &,std::basic_string<char,std::char_traits<char>,std::allocator<char> > const &,std::basic_string<char,std::char_traits<char>,std::allocator<char> > &),next::sdk::events::EventServer *,std::_Ph<1> const &,std::_Ph<2> const &,std::_Ph<3> const &,std::_Ph<4> const &,std::_Ph<5> const &>,int,std::basic_string<char,std::char_traits<char>,std::allocator<char> > const &,std::basic_string<char,std::char_traits<char>,std::allocator<char> > const &,std::basic_string<char,std::char_traits<char>,std::allocator<char> > const &,std::basic_string<char,std::char_traits<char>,std::allocator<char> > const &,std::basic_string<char,std::char_traits<char>,std::allocator<char> > &>::_Get()
FUNC 378f0 5 0 const void * std::_Func_impl_no_alloc<std::_Binder<std::_Unforced,void (__cdecl next::sdk::events::EventServer::*)(char const *,eCAL::SServerEventCallbackData const *),next::sdk::events::EventServer *,std::_Ph<1> const &,std::_Ph<2> const &>,void,char const *,eCAL::SServerEventCallbackData const *>::_Get()
FUNC 37900 41 0 class std::_Func_base<int,std::basic_string<char,std::char_traits<char>,std::allocator<char> > const &,std::basic_string<char,std::char_traits<char>,std::allocator<char> > const &,std::basic_string<char,std::char_traits<char>,std::allocator<char> > const &,std::basic_string<char,std::char_traits<char>,std::allocator<char> > const &,std::basic_string<char,std::char_traits<char>,std::allocator<char> > &> * std::_Func_impl_no_alloc<std::_Binder<std::_Unforced,int (__cdecl next::sdk::events::EventServer::*)(std::basic_string<char,std::char_traits<char>,std::allocator<char> > const &,std::basic_string<char,std::char_traits<char>,std::allocator<char> > const &,std::basic_string<char,std::char_traits<char>,std::allocator<char> > const &,std::basic_string<char,std::char_traits<char>,std::allocator<char> > const &,std::basic_string<char,std::char_traits<char>,std::allocator<char> > &),next::sdk::events::EventServer *,std::_Ph<1> const &,std::_Ph<2> const &,std::_Ph<3> const &,std::_Ph<4> const &,std::_Ph<5> const &>,int,std::basic_string<char,std::char_traits<char>,std::allocator<char> > const &,std::basic_string<char,std::char_traits<char>,std::allocator<char> > const &,std::basic_string<char,std::char_traits<char>,std::allocator<char> > const &,std::basic_string<char,std::char_traits<char>,std::allocator<char> > const &,std::basic_string<char,std::char_traits<char>,std::allocator<char> > &>::_Move(void *)
FUNC 37950 2c 0 class std::_Func_base<void,char const *,eCAL::SServerEventCallbackData const *> * std::_Func_impl_no_alloc<std::_Binder<std::_Unforced,void (__cdecl next::sdk::events::EventServer::*)(char const *,eCAL::SServerEventCallbackData const *),next::sdk::events::EventServer *,std::_Ph<1> const &,std::_Ph<2> const &>,void,char const *,eCAL::SServerEventCallbackData const *>::_Move(void *)
FUNC 37980 8 0 const class type_info & const std::_Func_impl_no_alloc<std::_Binder<std::_Unforced,int (__cdecl next::sdk::events::EventServer::*)(std::basic_string<char,std::char_traits<char>,std::allocator<char> > const &,std::basic_string<char,std::char_traits<char>,std::allocator<char> > const &,std::basic_string<char,std::char_traits<char>,std::allocator<char> > const &,std::basic_string<char,std::char_traits<char>,std::allocator<char> > const &,std::basic_string<char,std::char_traits<char>,std::allocator<char> > &),next::sdk::events::EventServer *,std::_Ph<1> const &,std::_Ph<2> const &,std::_Ph<3> const &,std::_Ph<4> const &,std::_Ph<5> const &>,int,std::basic_string<char,std::char_traits<char>,std::allocator<char> > const &,std::basic_string<char,std::char_traits<char>,std::allocator<char> > const &,std::basic_string<char,std::char_traits<char>,std::allocator<char> > const &,std::basic_string<char,std::char_traits<char>,std::allocator<char> > const &,std::basic_string<char,std::char_traits<char>,std::allocator<char> > &>::_Target_type()
FUNC 37990 8 0 const class type_info & const std::_Func_impl_no_alloc<std::_Binder<std::_Unforced,void (__cdecl next::sdk::events::EventServer::*)(char const *,eCAL::SServerEventCallbackData const *),next::sdk::events::EventServer *,std::_Ph<1> const &,std::_Ph<2> const &>,void,char const *,eCAL::SServerEventCallbackData const *>::_Target_type()
FUNC 379a0 16 0 void std::_Tree<std::_Tmap_traits<unsigned __int64,std::function<void __cdecl(std::vector<unsigned char,std::allocator<unsigned char> > const &,std::basic_string<char,std::char_traits<char>,std::allocator<char> > &)>,std::less<unsigned __int64>,std::allocator<std::pair<unsigned __int64 const ,std::function<void __cdecl(std::vector<unsigned char,std::allocator<unsigned char> > const &,std::basic_string<char,std::char_traits<char>,std::allocator<char> > &)> > >,0> >::_Tidy()
FUNC 379c0 16 0 void std::_Tree<std::_Tmap_traits<unsigned __int64,std::function<void __cdecl(std::vector<unsigned char,std::allocator<unsigned char> > const &,__int64,__int64)>,std::less<unsigned __int64>,std::allocator<std::pair<unsigned __int64 const ,std::function<void __cdecl(std::vector<unsigned char,std::allocator<unsigned char> > const &,__int64,__int64)> > >,0> >::_Tidy()
FUNC 379e0 58 0 std::vector<unsigned char,std::allocator<unsigned char> >::_Tidy()
FUNC 37a40 11 0 std::vector<unsigned char,std::allocator<unsigned char> >::_Xlength()
FUNC 37a60 d1 0 next::sdk::events::EventServer::initialize(std::basic_string<char,std::char_traits<char>,std::allocator<char> > const &,std::basic_string<char,std::char_traits<char>,std::allocator<char> > const &,next::sdk::events::RegisteredEvent const &)
FUNC 37b40 d1 0 next::sdk::events::EventServer::listen(std::basic_string<char,std::char_traits<char>,std::allocator<char> > const &,std::basic_string<char,std::char_traits<char>,std::allocator<char> > const &,next::sdk::events::RegisteredEvent const &)
FUNC 37c20 c2 0 next::sdk::events::EventTypesHookHelper<eCAL::CServiceServer>::lookUpEcalType()
FUNC 37cf0 255 0 next::sdk::events::EventServer::onListenerAddedEvent(char const *,eCAL::SServerEventCallbackData const *)
FUNC 37f50 3fa 0 next::sdk::events::EventServer::onMethodCallback(std::basic_string<char,std::char_traits<char>,std::allocator<char> > const &,std::basic_string<char,std::char_traits<char>,std::allocator<char> > const &,std::basic_string<char,std::char_traits<char>,std::allocator<char> > const &,std::basic_string<char,std::char_traits<char>,std::allocator<char> > const &,std::basic_string<char,std::char_traits<char>,std::allocator<char> > &)
FUNC 38350 19f 0 next::sdk::events::EventTypesHookHelper<eCAL::CServiceServer>::reset()
FUNC 384f0 3 0 std::_Enable_shared_from_this1<eCAL::CSubscriber,eCAL::CSubscriber>(std::shared_ptr<eCAL::CSubscriber> const &,eCAL::CSubscriber *,std::integral_constant<bool,0>)
FUNC 38500 3 0 std::_Enable_shared_from_this<eCAL::CSubscriber,eCAL::CSubscriber>(std::shared_ptr<eCAL::CSubscriber> const &,eCAL::CSubscriber *)
FUNC 38510 8 0 std::_Ptr_copy_cat<unsigned char,unsigned char>(unsigned char * const &,unsigned char * const &)
FUNC 38520 6e 0 void std::vector<unsigned char,std::allocator<unsigned char> >::_Range_construct_or_tidy<unsigned char *>(unsigned char *, unsigned char *, struct std::forward_iterator_tag)
FUNC 38590 e6 0 next::sdk::events::EventSubscriber::EventSubscriber()
FUNC 38680 de 0 next::sdk::events::EventTypesHookHelper<eCAL::CSubscriber>::~EventTypesHookHelper<eCAL::CSubscriber>()
FUNC 38760 4b 0 std::shared_ptr<eCAL::CSubscriber>::~shared_ptr<eCAL::CSubscriber>()
FUNC 387b0 83 0 next::sdk::events::EventSubscriber::~EventSubscriber()
FUNC 38840 28 0 eCAL::SDataTypeInformation::~SDataTypeInformation()
FUNC 38870 34 0 next::sdk::events::EventTypesHookHelper<eCAL::CSubscriber>::`scalar deleting destructor'(unsigned int)
FUNC 388b0 21 0 std::_Ref_count_obj<eCAL::CSubscriber>::`scalar deleting destructor'(unsigned int)
FUNC 388e0 a8 0 next::sdk::events::EventSubscriber::`scalar deleting destructor'(unsigned int)
FUNC 38990 180 0 next::sdk::events::EventTypesHookHelper<eCAL::CSubscriber>::AddEventReceived(next::sdk::events::RegisteredEvent const &)
FUNC 38b10 343 0 next::sdk::events::EventSubscriber::AddSubscriber(std::basic_string<char,std::char_traits<char>,std::allocator<char> > const &,std::basic_string<char,std::char_traits<char>,std::allocator<char> > const &,bool)
FUNC 38e60 108 0 next::sdk::events::EventTypesHookHelper<eCAL::CSubscriber>::AddSubscriberAddedHook(next::sdk::events::RegisteredEvent const &)
FUNC 38f70 114 0 next::sdk::events::EventTypesHookHelper<eCAL::CSubscriber>::CheckHooksAdded(next::sdk::events::RegisteredEvent const &)
FUNC 39090 6c 0 next::sdk::events::EventSubscriber::DestroyEcalType(std::shared_ptr<eCAL::CSubscriber>)
FUNC 39100 9b 0 std::vector<unsigned char,std::allocator<unsigned char> >::_Buy(unsigned __int64)
FUNC 391a0 2c 0 class std::_Func_base<void,char const *,eCAL::SReceiveCallbackData const *> * std::_Func_impl_no_alloc<std::_Binder<std::_Unforced,void (__cdecl next::sdk::events::EventSubscriber::*)(char const *,eCAL::SReceiveCallbackData const *),next::sdk::events::EventSubscriber *,std::_Ph<1> const &,std::_Ph<2> const &>,void,char const *,eCAL::SReceiveCallbackData const *>::_Copy(void *)
FUNC 391d0 2c 0 class std::_Func_base<void,char const *,eCAL::SSubEventCallbackData const *> * std::_Func_impl_no_alloc<std::_Binder<std::_Unforced,void (__cdecl next::sdk::events::EventSubscriber::*)(char const *,eCAL::SSubEventCallbackData const *),next::sdk::events::EventSubscriber *,std::_Ph<1> const &,std::_Ph<2> const &>,void,char const *,eCAL::SSubEventCallbackData const *>::_Copy(void *)
FUNC 39200 21 0 void std::_Func_impl_no_alloc<std::_Binder<std::_Unforced,void (__cdecl next::sdk::events::EventSubscriber::*)(char const *,eCAL::SReceiveCallbackData const *),next::sdk::events::EventSubscriber *,std::_Ph<1> const &,std::_Ph<2> const &>,void,char const *,eCAL::SReceiveCallbackData const *>::_Delete_this(bool)
FUNC 39230 21 0 void std::_Func_impl_no_alloc<std::_Binder<std::_Unforced,void (__cdecl next::sdk::events::EventSubscriber::*)(char const *,eCAL::SSubEventCallbackData const *),next::sdk::events::EventSubscriber *,std::_Ph<1> const &,std::_Ph<2> const &>,void,char const *,eCAL::SSubEventCallbackData const *>::_Delete_this(bool)
FUNC 39260 12 0 std::_Ref_count_obj<eCAL::CSubscriber>::_Delete_this()
FUNC 39280 d 0 std::_Ref_count_obj<eCAL::CSubscriber>::_Destroy()
FUNC 39290 11 0 void std::_Func_impl_no_alloc<std::_Binder<std::_Unforced,void (__cdecl next::sdk::events::EventSubscriber::*)(char const *,eCAL::SReceiveCallbackData const *),next::sdk::events::EventSubscriber *,std::_Ph<1> const &,std::_Ph<2> const &>,void,char const *,eCAL::SReceiveCallbackData const *>::_Do_call(const char * *, const struct eCAL::SReceiveCallbackData * *)
FUNC 392b0 11 0 void std::_Func_impl_no_alloc<std::_Binder<std::_Unforced,void (__cdecl next::sdk::events::EventSubscriber::*)(char const *,eCAL::SSubEventCallbackData const *),next::sdk::events::EventSubscriber *,std::_Ph<1> const &,std::_Ph<2> const &>,void,char const *,eCAL::SSubEventCallbackData const *>::_Do_call(const char * *, const struct eCAL::SSubEventCallbackData * *)
FUNC 392d0 5 0 const void * std::_Func_impl_no_alloc<std::_Binder<std::_Unforced,void (__cdecl next::sdk::events::EventSubscriber::*)(char const *,eCAL::SReceiveCallbackData const *),next::sdk::events::EventSubscriber *,std::_Ph<1> const &,std::_Ph<2> const &>,void,char const *,eCAL::SReceiveCallbackData const *>::_Get()
FUNC 392e0 5 0 const void * std::_Func_impl_no_alloc<std::_Binder<std::_Unforced,void (__cdecl next::sdk::events::EventSubscriber::*)(char const *,eCAL::SSubEventCallbackData const *),next::sdk::events::EventSubscriber *,std::_Ph<1> const &,std::_Ph<2> const &>,void,char const *,eCAL::SSubEventCallbackData const *>::_Get()
FUNC 392f0 2c 0 class std::_Func_base<void,char const *,eCAL::SReceiveCallbackData const *> * std::_Func_impl_no_alloc<std::_Binder<std::_Unforced,void (__cdecl next::sdk::events::EventSubscriber::*)(char const *,eCAL::SReceiveCallbackData const *),next::sdk::events::EventSubscriber *,std::_Ph<1> const &,std::_Ph<2> const &>,void,char const *,eCAL::SReceiveCallbackData const *>::_Move(void *)
FUNC 39320 2c 0 class std::_Func_base<void,char const *,eCAL::SSubEventCallbackData const *> * std::_Func_impl_no_alloc<std::_Binder<std::_Unforced,void (__cdecl next::sdk::events::EventSubscriber::*)(char const *,eCAL::SSubEventCallbackData const *),next::sdk::events::EventSubscriber *,std::_Ph<1> const &,std::_Ph<2> const &>,void,char const *,eCAL::SSubEventCallbackData const *>::_Move(void *)
FUNC 39350 8 0 const class type_info & const std::_Func_impl_no_alloc<std::_Binder<std::_Unforced,void (__cdecl next::sdk::events::EventSubscriber::*)(char const *,eCAL::SReceiveCallbackData const *),next::sdk::events::EventSubscriber *,std::_Ph<1> const &,std::_Ph<2> const &>,void,char const *,eCAL::SReceiveCallbackData const *>::_Target_type()
FUNC 39360 8 0 const class type_info & const std::_Func_impl_no_alloc<std::_Binder<std::_Unforced,void (__cdecl next::sdk::events::EventSubscriber::*)(char const *,eCAL::SSubEventCallbackData const *),next::sdk::events::EventSubscriber *,std::_Ph<1> const &,std::_Ph<2> const &>,void,char const *,eCAL::SSubEventCallbackData const *>::_Target_type()
FUNC 39370 d4 0 next::sdk::events::EventSubscriber::initialize(std::basic_string<char,std::char_traits<char>,std::allocator<char> > const &,std::basic_string<char,std::char_traits<char>,std::allocator<char> > const &,next::sdk::events::RegisteredEvent const &)
FUNC 39450 c2 0 next::sdk::events::EventTypesHookHelper<eCAL::CSubscriber>::lookUpEcalType()
FUNC 39520 25d 0 next::sdk::events::EventSubscriber::onDataReceive(char const *,eCAL::SReceiveCallbackData const *)
FUNC 39780 202 0 next::sdk::events::EventSubscriber::onListenerAddedEvent(char const *,eCAL::SSubEventCallbackData const *)
FUNC 39990 19f 0 next::sdk::events::EventTypesHookHelper<eCAL::CSubscriber>::reset()
FUNC 39b30 d4 0 next::sdk::events::EventSubscriber::subscribe(std::basic_string<char,std::char_traits<char>,std::allocator<char> > const &,std::basic_string<char,std::char_traits<char>,std::allocator<char> > const &,next::sdk::events::RegisteredEvent const &)
FUNC 39c10 1cf 0 std::operator<<<std::char_traits<char> >(std::basic_ostream<char,std::char_traits<char> > &,char const *)
FUNC 39de0 53 0 struct std::_List_node<std::pair<std::basic_string<char,std::char_traits<char>,std::allocator<char> > const ,enum next::sdk::events::CycleState>,void *> * std::_List_buy<std::pair<std::basic_string<char,std::char_traits<char>,std::allocator<char> > const ,enum next::sdk::events::CycleState>,std::allocator<std::pair<std::basic_string<char,std::char_traits<char>,std::allocator<char> > const ,enum next::sdk::events::CycleState> > >::_Buynode<std::pair<std::basic_string<char,std::char_traits<char>,std::allocator<char> > const ,enum next::sdk::events::CycleState> const &>(struct std::_List_node<std::pair<std::basic_string<char,std::char_traits<char>,std::allocator<char> > const ,enum next::sdk::events::CycleState>,void *> *, struct std::_List_node<std::pair<std::basic_string<char,std::char_traits<char>,std::allocator<char> > const ,enum next::sdk::events::CycleState>,void *> *, const struct std::pair<std::basic_string<char,std::char_traits<char>,std::allocator<char> > const ,enum next::sdk::events::CycleState> & const)
FUNC 39e40 4a 0 struct std::_List_node<std::pair<enum next::sdk::events::CycleState const ,std::basic_string<char,std::char_traits<char>,std::allocator<char> > >,void *> * std::_List_buy<std::pair<enum next::sdk::events::CycleState const ,std::basic_string<char,std::char_traits<char>,std::allocator<char> > >,std::allocator<std::pair<enum next::sdk::events::CycleState const ,std::basic_string<char,std::char_traits<char>,std::allocator<char> > > > >::_Buynode<std::pair<enum next::sdk::events::CycleState const ,std::basic_string<char,std::char_traits<char>,std::allocator<char> > > const &>(struct std::_List_node<std::pair<enum next::sdk::events::CycleState const ,std::basic_string<char,std::char_traits<char>,std::allocator<char> > >,void *> *, struct std::_List_node<std::pair<enum next::sdk::events::CycleState const ,std::basic_string<char,std::char_traits<char>,std::allocator<char> > >,void *> *, const struct std::pair<enum next::sdk::events::CycleState const ,std::basic_string<char,std::char_traits<char>,std::allocator<char> > > & const)
FUNC 39e90 283 0 class std::function<void __cdecl(std::basic_string<char,std::char_traits<char>,std::allocator<char> > const &)> * std::vector<std::function<void __cdecl(std::basic_string<char,std::char_traits<char>,std::allocator<char> > const &)>,std::allocator<std::function<void __cdecl(std::basic_string<char,std::char_traits<char>,std::allocator<char> > const &)> > >::_Emplace_reallocate<std::function<void __cdecl(std::basic_string<char,std::char_traits<char>,std::allocator<char> > const &)> const &>(class std::function<void __cdecl(std::basic_string<char,std::char_traits<char>,std::allocator<char> > const &)> *, const class std::function<void __cdecl(std::basic_string<char,std::char_traits<char>,std::allocator<char> > const &)> & const)
FUNC 3a120 283 0 class std::function<void __cdecl(std::vector<unsigned char,std::allocator<unsigned char> > const &,std::basic_string<char,std::char_traits<char>,std::allocator<char> > &)> * std::vector<std::function<void __cdecl(std::vector<unsigned char,std::allocator<unsigned char> > const &,std::basic_string<char,std::char_traits<char>,std::allocator<char> > &)>,std::allocator<std::function<void __cdecl(std::vector<unsigned char,std::allocator<unsigned char> > const &,std::basic_string<char,std::char_traits<char>,std::allocator<char> > &)> > >::_Emplace_reallocate<std::function<void __cdecl(std::vector<unsigned char,std::allocator<unsigned char> > const &,std::basic_string<char,std::char_traits<char>,std::allocator<char> > &)> const &>(class std::function<void __cdecl(std::vector<unsigned char,std::allocator<unsigned char> > const &,std::basic_string<char,std::char_traits<char>,std::allocator<char> > &)> *, const class std::function<void __cdecl(std::vector<unsigned char,std::allocator<unsigned char> > const &,std::basic_string<char,std::char_traits<char>,std::allocator<char> > &)> & const)
FUNC 3a3b0 283 0 class std::function<void __cdecl(void)> * std::vector<std::function<void __cdecl(void)>,std::allocator<std::function<void __cdecl(void)> > >::_Emplace_reallocate<std::function<void __cdecl(void)> const &>(class std::function<void __cdecl(void)> *, const class std::function<void __cdecl(void)> & const)
FUNC 3a640 3 0 std::_Enable_shared_from_this1<next::sdk::events::BaseEventBinaryImpl,next::sdk::events::BaseEventBinaryImpl>(std::shared_ptr<next::sdk::events::BaseEventBinaryImpl> const &,next::sdk::events::BaseEventBinaryImpl *,std::integral_constant<bool,0>)
FUNC 3a650 3 0 std::_Enable_shared_from_this<next::sdk::events::BaseEventBinaryImpl,next::sdk::events::BaseEventBinaryImpl>(std::shared_ptr<next::sdk::events::BaseEventBinaryImpl> const &,next::sdk::events::BaseEventBinaryImpl *)
FUNC 3a660 97 0 void std::_Fill_unchecked<std::_List_unchecked_iterator<std::_List_val<std::_List_simple_types<std::pair<std::basic_string<char,std::char_traits<char>,std::allocator<char> > const ,enum next::sdk::events::CycleState> > > > *,std::_List_unchecked_iterator<std::_List_val<std::_List_simple_types<std::pair<std::basic_string<char,std::char_traits<char>,std::allocator<char> > const ,enum next::sdk::events::CycleState> > > > >(class std::_List_unchecked_iterator<std::_List_val<std::_List_simple_types<std::pair<std::basic_string<char,std::char_traits<char>,std::allocator<char> > const ,enum next::sdk::events::CycleState> > > > *, class std::_List_unchecked_iterator<std::_List_val<std::_List_simple_types<std::pair<std::basic_string<char,std::char_traits<char>,std::allocator<char> > const ,enum next::sdk::events::CycleState> > > > *, const class std::_List_unchecked_iterator<std::_List_val<std::_List_simple_types<std::pair<std::basic_string<char,std::char_traits<char>,std::allocator<char> > const ,enum next::sdk::events::CycleState> > > > & const)
FUNC 3a700 97 0 void std::_Fill_unchecked<std::_List_unchecked_iterator<std::_List_val<std::_List_simple_types<std::pair<enum next::sdk::events::CycleState const ,std::basic_string<char,std::char_traits<char>,std::allocator<char> > > > > > *,std::_List_unchecked_iterator<std::_List_val<std::_List_simple_types<std::pair<enum next::sdk::events::CycleState const ,std::basic_string<char,std::char_traits<char>,std::allocator<char> > > > > > >(class std::_List_unchecked_iterator<std::_List_val<std::_List_simple_types<std::pair<enum next::sdk::events::CycleState const ,std::basic_string<char,std::char_traits<char>,std::allocator<char> > > > > > *, class std::_List_unchecked_iterator<std::_List_val<std::_List_simple_types<std::pair<enum next::sdk::events::CycleState const ,std::basic_string<char,std::char_traits<char>,std::allocator<char> > > > > > *, const class std::_List_unchecked_iterator<std::_List_val<std::_List_simple_types<std::pair<enum next::sdk::events::CycleState const ,std::basic_string<char,std::char_traits<char>,std::allocator<char> > > > > > & const)
FUNC 3a7a0 265 0 struct std::pair<std::_List_iterator<std::_List_val<std::_List_simple_types<std::pair<std::basic_string<char,std::char_traits<char>,std::allocator<char> > const ,enum next::sdk::events::CycleState> > > >,bool> std::_Hash<std::_Umap_traits<std::basic_string<char,std::char_traits<char>,std::allocator<char> >,enum next::sdk::events::CycleState,std::_Uhash_compare<std::basic_string<char,std::char_traits<char>,std::allocator<char> >,std::hash<std::basic_string<char,std::char_traits<char>,std::allocator<char> > >,std::equal_to<std::basic_string<char,std::char_traits<char>,std::allocator<char> > > >,std::allocator<std::pair<std::basic_string<char,std::char_traits<char>,std::allocator<char> > const ,enum next::sdk::events::CycleState> >,0> >::_Insert<std::pair<std::basic_string<char,std::char_traits<char>,std::allocator<char> > const ,enum next::sdk::events::CycleState> &,std::_List_unchecked_iterator<std::_List_val<std::_List_simple_types<std::pair<std::basic_string<char,std::char_traits<char>,std::allocator<char> > const ,enum next::sdk::events::CycleState> > > > >(struct std::pair<std::basic_string<char,std::char_traits<char>,std::allocator<char> > const ,enum next::sdk::events::CycleState> & const, class std::_List_unchecked_iterator<std::_List_val<std::_List_simple_types<std::pair<std::basic_string<char,std::char_traits<char>,std::allocator<char> > const ,enum next::sdk::events::CycleState> > > >)
FUNC 3aa10 200 0 struct std::pair<std::_List_iterator<std::_List_val<std::_List_simple_types<std::pair<enum next::sdk::events::CycleState const ,std::basic_string<char,std::char_traits<char>,std::allocator<char> > > > > >,bool> std::_Hash<std::_Umap_traits<enum next::sdk::events::CycleState,std::basic_string<char,std::char_traits<char>,std::allocator<char> >,std::_Uhash_compare<enum next::sdk::events::CycleState,std::hash<enum next::sdk::events::CycleState>,std::equal_to<enum next::sdk::events::CycleState> >,std::allocator<std::pair<enum next::sdk::events::CycleState const ,std::basic_string<char,std::char_traits<char>,std::allocator<char> > > >,0> >::_Insert<std::pair<enum next::sdk::events::CycleState const ,std::basic_string<char,std::char_traits<char>,std::allocator<char> > > &,std::_List_unchecked_iterator<std::_List_val<std::_List_simple_types<std::pair<enum next::sdk::events::CycleState const ,std::basic_string<char,std::char_traits<char>,std::allocator<char> > > > > > >(struct std::pair<enum next::sdk::events::CycleState const ,std::basic_string<char,std::char_traits<char>,std::allocator<char> > > & const, class std::_List_unchecked_iterator<std::_List_val<std::_List_simple_types<std::pair<enum next::sdk::events::CycleState const ,std::basic_string<char,std::char_traits<char>,std::allocator<char> > > > > >)
FUNC 3ac10 1d2 0 std::_Insert_string<char,std::char_traits<char>,unsigned __int64>(std::basic_ostream<char,std::char_traits<char> > &,char const * const,unsigned __int64)
FUNC 3adf0 110 0 void std::vector<std::basic_string<char,std::char_traits<char>,std::allocator<char> >,std::allocator<std::basic_string<char,std::char_traits<char>,std::allocator<char> > > >::_Range_construct_or_tidy<std::basic_string<char,std::char_traits<char>,std::allocator<char> > const *>(const class std::basic_string<char,std::char_traits<char>,std::allocator<char> > *, const class std::basic_string<char,std::char_traits<char>,std::allocator<char> > *, struct std::forward_iterator_tag)
FUNC 3af00 39 0 std::endl<char,std::char_traits<char> >(std::basic_ostream<char,std::char_traits<char> > &)
FUNC 3af40 10e 0 std::_Hash<std::_Umap_traits<std::basic_string<char,std::char_traits<char>,std::allocator<char> >,next::sdk::events::CycleState,std::_Uhash_compare<std::basic_string<char,std::char_traits<char>,std::allocator<char> >,std::hash<std::basic_string<char,std::char_traits<char>,std::allocator<char> > >,std::equal_to<std::basic_string<char,std::char_traits<char>,std::allocator<char> > > >,std::allocator<std::pair<std::basic_string<char,std::char_traits<char>,std::allocator<char> > const ,next::sdk::events::CycleState> >,0> >::erase<std::_List_iterator<std::_List_val<std::_List_simple_types<std::pair<std::basic_string<char,std::char_traits<char>,std::allocator<char> > const ,next::sdk::events::CycleState> > > >,void>(std::_List_iterator<std::_List_val<std::_List_simple_types<std::pair<std::basic_string<char,std::char_traits<char>,std::allocator<char> > const ,next::sdk::events::CycleState> > > >)
FUNC 3b050 d0 0 std::_Hash<std::_Umap_traits<next::sdk::events::CycleState,std::basic_string<char,std::char_traits<char>,std::allocator<char> >,std::_Uhash_compare<next::sdk::events::CycleState,std::hash<next::sdk::events::CycleState>,std::equal_to<next::sdk::events::CycleState> >,std::allocator<std::pair<next::sdk::events::CycleState const ,std::basic_string<char,std::char_traits<char>,std::allocator<char> > > >,0> >::erase<std::_List_iterator<std::_List_val<std::_List_simple_types<std::pair<next::sdk::events::CycleState const ,std::basic_string<char,std::char_traits<char>,std::allocator<char> > > > > >,void>(std::_List_iterator<std::_List_val<std::_List_simple_types<std::pair<next::sdk::events::CycleState const ,std::basic_string<char,std::char_traits<char>,std::allocator<char> > > > > >)
FUNC 3b120 147 0 next::sdk::events::BaseEventBinaryBlocking<next::sdk::events::Cycle>::BaseEventBinaryBlocking<next::sdk::events::Cycle>(std::basic_string<char,std::char_traits<char>,std::allocator<char> >)
FUNC 3b270 136 0 next::sdk::events::BaseEventTemplate<std::vector<unsigned char,std::allocator<unsigned char> >,next::sdk::events::Cycle>::BaseEventTemplate<std::vector<unsigned char,std::allocator<unsigned char> >,next::sdk::events::Cycle>(std::basic_string<char,std::char_traits<char>,std::allocator<char> >,std::basic_string<char,std::char_traits<char>,std::allocator<char> >)
FUNC 3b3b0 76 0 next::sdk::events::CycleEvent::CycleEvent(std::basic_string<char,std::char_traits<char>,std::allocator<char> >)
FUNC 3b430 17b 0 next::sdk::events::BaseEventBinaryBlocking<next::sdk::events::Cycle>::~BaseEventBinaryBlocking<next::sdk::events::Cycle>()
FUNC 3b5b0 c5 0 next::sdk::events::BaseEventTemplate<std::vector<unsigned char,std::allocator<unsigned char> >,next::sdk::events::Cycle>::~BaseEventTemplate<std::vector<unsigned char,std::allocator<unsigned char> >,next::sdk::events::Cycle>()
FUNC 3b680 2c 0 std::_Func_class<void>::~_Func_class<void>()
FUNC 3b6b0 2c 0 void std::_Func_class<void,std::basic_string<char,std::char_traits<char>,std::allocator<char> > const &>::~_Func_class<void,std::basic_string<char,std::char_traits<char>,std::allocator<char> > const &>()
FUNC 3b6e0 20 0 std::_Hash<std::_Umap_traits<std::basic_string<char,std::char_traits<char>,std::allocator<char> >,next::sdk::events::CycleState,std::_Uhash_compare<std::basic_string<char,std::char_traits<char>,std::allocator<char> >,std::hash<std::basic_string<char,std::char_traits<char>,std::allocator<char> > >,std::equal_to<std::basic_string<char,std::char_traits<char>,std::allocator<char> > > >,std::allocator<std::pair<std::basic_string<char,std::char_traits<char>,std::allocator<char> > const ,next::sdk::events::CycleState> >,0> >::~_Hash<std::_Umap_traits<std::basic_string<char,std::char_traits<char>,std::allocator<char> >,next::sdk::events::CycleState,std::_Uhash_compare<std::basic_string<char,std::char_traits<char>,std::allocator<char> >,std::hash<std::basic_string<char,std::char_traits<char>,std::allocator<char> > >,std::equal_to<std::basic_string<char,std::char_traits<char>,std::allocator<char> > > >,std::allocator<std::pair<std::basic_string<char,std::char_traits<char>,std::allocator<char> > const ,next::sdk::events::CycleState> >,0> >()
FUNC 3b700 20 0 std::_Hash<std::_Umap_traits<next::sdk::events::CycleState,std::basic_string<char,std::char_traits<char>,std::allocator<char> >,std::_Uhash_compare<next::sdk::events::CycleState,std::hash<next::sdk::events::CycleState>,std::equal_to<next::sdk::events::CycleState> >,std::allocator<std::pair<next::sdk::events::CycleState const ,std::basic_string<char,std::char_traits<char>,std::allocator<char> > > >,0> >::~_Hash<std::_Umap_traits<next::sdk::events::CycleState,std::basic_string<char,std::char_traits<char>,std::allocator<char> >,std::_Uhash_compare<next::sdk::events::CycleState,std::hash<next::sdk::events::CycleState>,std::equal_to<next::sdk::events::CycleState> >,std::allocator<std::pair<next::sdk::events::CycleState const ,std::basic_string<char,std::char_traits<char>,std::allocator<char> > > >,0> >()
FUNC 3b720 32 0 void std::_Uninitialized_backout_al<std::basic_string<char,std::char_traits<char>,std::allocator<char> > *,std::allocator<std::basic_string<char,std::char_traits<char>,std::allocator<char> > > >::~_Uninitialized_backout_al<std::basic_string<char,std::char_traits<char>,std::allocator<char> > *,std::allocator<std::basic_string<char,std::char_traits<char>,std::allocator<char> > > >()
FUNC 3b760 52 0 void std::_Uninitialized_backout_al<std::function<void __cdecl(std::basic_string<char,std::char_traits<char>,std::allocator<char> > const &)> *,std::allocator<std::function<void __cdecl(std::basic_string<char,std::char_traits<char>,std::allocator<char> > const &)> > >::~_Uninitialized_backout_al<std::function<void __cdecl(std::basic_string<char,std::char_traits<char>,std::allocator<char> > const &)> *,std::allocator<std::function<void __cdecl(std::basic_string<char,std::char_traits<char>,std::allocator<char> > const &)> > >()
FUNC 3b7c0 52 0 void std::_Uninitialized_backout_al<std::function<void __cdecl(std::vector<unsigned char,std::allocator<unsigned char> > const &,std::basic_string<char,std::char_traits<char>,std::allocator<char> > &)> *,std::allocator<std::function<void __cdecl(std::vector<unsigned char,std::allocator<unsigned char> > const &,std::basic_string<char,std::char_traits<char>,std::allocator<char> > &)> > >::~_Uninitialized_backout_al<std::function<void __cdecl(std::vector<unsigned char,std::allocator<unsigned char> > const &,std::basic_string<char,std::char_traits<char>,std::allocator<char> > &)> *,std::allocator<std::function<void __cdecl(std::vector<unsigned char,std::allocator<unsigned char> > const &,std::basic_string<char,std::char_traits<char>,std::allocator<char> > &)> > >()
FUNC 3b820 52 0 void std::_Uninitialized_backout_al<std::function<void __cdecl(void)> *,std::allocator<std::function<void __cdecl(void)> > >::~_Uninitialized_backout_al<std::function<void __cdecl(void)> *,std::allocator<std::function<void __cdecl(void)> > >()
FUNC 3b880 2c 0 void std::function<void __cdecl(std::basic_string<char,std::char_traits<char>,std::allocator<char> > const &)>::~function<void __cdecl(std::basic_string<char,std::char_traits<char>,std::allocator<char> > const &)>()
FUNC 3b8b0 2c 0 void std::function<void __cdecl(std::vector<unsigned char,std::allocator<unsigned char> > const &,std::basic_string<char,std::char_traits<char>,std::allocator<char> > &)>::~function<void __cdecl(std::vector<unsigned char,std::allocator<unsigned char> > const &,std::basic_string<char,std::char_traits<char>,std::allocator<char> > &)>()
FUNC 3b8e0 2c 0 std::function<void >::~function<void >()
FUNC 3b910 81 0 std::list<std::pair<std::basic_string<char,std::char_traits<char>,std::allocator<char> > const ,next::sdk::events::CycleState>,std::allocator<std::pair<std::basic_string<char,std::char_traits<char>,std::allocator<char> > const ,next::sdk::events::CycleState> > >::~list<std::pair<std::basic_string<char,std::char_traits<char>,std::allocator<char> > const ,next::sdk::events::CycleState>,std::allocator<std::pair<std::basic_string<char,std::char_traits<char>,std::allocator<char> > const ,next::sdk::events::CycleState> > >()
FUNC 3b9a0 81 0 std::list<std::pair<next::sdk::events::CycleState const ,std::basic_string<char,std::char_traits<char>,std::allocator<char> > >,std::allocator<std::pair<next::sdk::events::CycleState const ,std::basic_string<char,std::char_traits<char>,std::allocator<char> > > > >::~list<std::pair<next::sdk::events::CycleState const ,std::basic_string<char,std::char_traits<char>,std::allocator<char> > >,std::allocator<std::pair<next::sdk::events::CycleState const ,std::basic_string<char,std::char_traits<char>,std::allocator<char> > > > >()
FUNC 3ba30 81 0 std::list<std::basic_string<char,std::char_traits<char>,std::allocator<char> >,std::allocator<std::basic_string<char,std::char_traits<char>,std::allocator<char> > > >::~list<std::basic_string<char,std::char_traits<char>,std::allocator<char> >,std::allocator<std::basic_string<char,std::char_traits<char>,std::allocator<char> > > >()
FUNC 3bac0 5 0 std::pair<std::basic_string<char,std::char_traits<char>,std::allocator<char> > const ,next::sdk::events::CycleState>::~pair<std::basic_string<char,std::char_traits<char>,std::allocator<char> > const ,next::sdk::events::CycleState>()
FUNC 3bad0 9 0 std::pair<next::sdk::events::CycleState const ,std::basic_string<char,std::char_traits<char>,std::allocator<char> > >::~pair<next::sdk::events::CycleState const ,std::basic_string<char,std::char_traits<char>,std::allocator<char> > >()
FUNC 3bae0 4b 0 std::shared_ptr<next::sdk::events::BaseEventBinaryImpl>::~shared_ptr<next::sdk::events::BaseEventBinaryImpl>()
FUNC 3bb30 66 0 std::vector<std::_List_unchecked_iterator<std::_List_val<std::_List_simple_types<std::pair<std::basic_string<char,std::char_traits<char>,std::allocator<char> > const ,next::sdk::events::CycleState> > > >,std::allocator<std::_List_unchecked_iterator<std::_List_val<std::_List_simple_types<std::pair<std::basic_string<char,std::char_traits<char>,std::allocator<char> > const ,next::sdk::events::CycleState> > > > > >::~vector<std::_List_unchecked_iterator<std::_List_val<std::_List_simple_types<std::pair<std::basic_string<char,std::char_traits<char>,std::allocator<char> > const ,next::sdk::events::CycleState> > > >,std::allocator<std::_List_unchecked_iterator<std::_List_val<std::_List_simple_types<std::pair<std::basic_string<char,std::char_traits<char>,std::allocator<char> > const ,next::sdk::events::CycleState> > > > > >()
FUNC 3bba0 66 0 std::vector<std::_List_unchecked_iterator<std::_List_val<std::_List_simple_types<std::pair<next::sdk::events::CycleState const ,std::basic_string<char,std::char_traits<char>,std::allocator<char> > > > > >,std::allocator<std::_List_unchecked_iterator<std::_List_val<std::_List_simple_types<std::pair<next::sdk::events::CycleState const ,std::basic_string<char,std::char_traits<char>,std::allocator<char> > > > > > > >::~vector<std::_List_unchecked_iterator<std::_List_val<std::_List_simple_types<std::pair<next::sdk::events::CycleState const ,std::basic_string<char,std::char_traits<char>,std::allocator<char> > > > > >,std::allocator<std::_List_unchecked_iterator<std::_List_val<std::_List_simple_types<std::pair<next::sdk::events::CycleState const ,std::basic_string<char,std::char_traits<char>,std::allocator<char> > > > > > > >()
FUNC 3bc10 18 0 std::vector<std::basic_string<char,std::char_traits<char>,std::allocator<char> >,std::allocator<std::basic_string<char,std::char_traits<char>,std::allocator<char> > > >::~vector<std::basic_string<char,std::char_traits<char>,std::allocator<char> >,std::allocator<std::basic_string<char,std::char_traits<char>,std::allocator<char> > > >()
FUNC 3bc30 b6 0 void std::vector<std::function<void __cdecl(std::basic_string<char,std::char_traits<char>,std::allocator<char> > const &)>,std::allocator<std::function<void __cdecl(std::basic_string<char,std::char_traits<char>,std::allocator<char> > const &)> > >::~vector<std::function<void __cdecl(std::basic_string<char,std::char_traits<char>,std::allocator<char> > const &)>,std::allocator<std::function<void __cdecl(std::basic_string<char,std::char_traits<char>,std::allocator<char> > const &)> > >()
FUNC 3bcf0 b6 0 void std::vector<std::function<void __cdecl(std::vector<unsigned char,std::allocator<unsigned char> > const &,std::basic_string<char,std::char_traits<char>,std::allocator<char> > &)>,std::allocator<std::function<void __cdecl(std::vector<unsigned char,std::allocator<unsigned char> > const &,std::basic_string<char,std::char_traits<char>,std::allocator<char> > &)> > >::~vector<std::function<void __cdecl(std::vector<unsigned char,std::allocator<unsigned char> > const &,std::basic_string<char,std::char_traits<char>,std::allocator<char> > &)>,std::allocator<std::function<void __cdecl(std::vector<unsigned char,std::allocator<unsigned char> > const &,std::basic_string<char,std::char_traits<char>,std::allocator<char> > &)> > >()
FUNC 3bdb0 b6 0 std::vector<std::function<void >,std::allocator<std::function<void > > >::~vector<std::function<void >,std::allocator<std::function<void > > >()
FUNC 3be70 5 0 next::sdk::events::CycleEvent::~CycleEvent()
FUNC 3be80 1f 0 Json::FastWriter::~FastWriter()
FUNC 3bea0 1c3 0 Json::Reader::~Reader()
FUNC 3c070 7e 0 next::sdk::events::RegisteredEvent::~RegisteredEvent()
FUNC 3c0f0 2d 0 std::basic_ostream<char,std::char_traits<char> >::_Sentry_base::~_Sentry_base()
FUNC 3c120 47 0 std::basic_ostream<char,std::char_traits<char> >::sentry::~sentry()
PUBLIC 3c168 0 [thunk]:next::sdk::events::BaseEventTemplate<std::vector<unsigned char,std::allocator<unsigned char> >,next::sdk::events::Cycle>::`vcall'{88,{flat}}' }'
PUBLIC 3c170 0 [thunk]:next::sdk::events::BaseEventTemplate<std::vector<unsigned char,std::allocator<unsigned char> >,next::sdk::events::Cycle>::`vcall'{96,{flat}}' }'
PUBLIC 3c178 0 [thunk]:next::sdk::events::BaseEventTemplate<std::vector<unsigned char,std::allocator<unsigned char> >,next::sdk::events::Cycle>::`vcall'{104,{flat}}' }'
FUNC 3c180 96 0 next::sdk::events::BaseEventBinaryBlocking<next::sdk::events::Cycle>::`vector deleting destructor'(unsigned int)
FUNC 3c220 96 0 next::sdk::events::BaseEventTemplate<std::vector<unsigned char,std::allocator<unsigned char> >,next::sdk::events::Cycle>::`vector deleting destructor'(unsigned int)
FUNC 3c2c0 96 0 next::sdk::events::CycleEvent::`vector deleting destructor'(unsigned int)
FUNC 3c360 34 0 next::sdk::events::BaseEventBinaryBlocking<next::sdk::events::Cycle>::`scalar deleting destructor'(unsigned int)
FUNC 3c3a0 34 0 next::sdk::events::BaseEventTemplate<std::vector<unsigned char,std::allocator<unsigned char> >,next::sdk::events::Cycle>::`scalar deleting destructor'(unsigned int)
FUNC 3c3e0 21 0 std::_Ref_count_obj<next::sdk::events::BaseEventBinaryImpl>::`scalar deleting destructor'(unsigned int)
FUNC 3c410 34 0 next::sdk::events::CycleEvent::`scalar deleting destructor'(unsigned int)
FUNC 3c450 4a 0 std::_List_alloc<std::_List_base_types<std::pair<std::basic_string<char,std::char_traits<char>,std::allocator<char> > const ,next::sdk::events::CycleState>,std::allocator<std::pair<std::basic_string<char,std::char_traits<char>,std::allocator<char> > const ,next::sdk::events::CycleState> > > >::_Buynode0(std::_List_node<std::pair<std::basic_string<char,std::char_traits<char>,std::allocator<char> > const ,next::sdk::events::CycleState>,void *> *,std::_List_node<std::pair<std::basic_string<char,std::char_traits<char>,std::allocator<char> > const ,next::sdk::events::CycleState>,void *> *)
FUNC 3c4a0 4a 0 std::_List_alloc<std::_List_base_types<std::pair<next::sdk::events::CycleState const ,std::basic_string<char,std::char_traits<char>,std::allocator<char> > >,std::allocator<std::pair<next::sdk::events::CycleState const ,std::basic_string<char,std::char_traits<char>,std::allocator<char> > > > > >::_Buynode0(std::_List_node<std::pair<next::sdk::events::CycleState const ,std::basic_string<char,std::char_traits<char>,std::allocator<char> > >,void *> *,std::_List_node<std::pair<next::sdk::events::CycleState const ,std::basic_string<char,std::char_traits<char>,std::allocator<char> > >,void *> *)
FUNC 3c4f0 25 0 class std::_Func_base<void,std::basic_string<char,std::char_traits<char>,std::allocator<char> > > * std::_Func_impl_no_alloc<std::_Binder<std::_Unforced,void (__cdecl next::sdk::events::BaseEventTemplate<std::vector<unsigned char,std::allocator<unsigned char> >,next::sdk::events::Cycle>::*)(std::basic_string<char,std::char_traits<char>,std::allocator<char> > const &),next::sdk::events::BaseEventBinaryBlocking<next::sdk::events::Cycle> *,std::_Ph<1> const &>,void,std::basic_string<char,std::char_traits<char>,std::allocator<char> > >::_Copy(void *)
FUNC 3c520 2c 0 class std::_Func_base<void,std::vector<unsigned char,std::allocator<unsigned char> > const &,std::basic_string<char,std::char_traits<char>,std::allocator<char> > &> * std::_Func_impl_no_alloc<std::_Binder<std::_Unforced,void (__cdecl next::sdk::events::BaseEventTemplate<std::vector<unsigned char,std::allocator<unsigned char> >,next::sdk::events::Cycle>::*)(std::vector<unsigned char,std::allocator<unsigned char> > const &,std::basic_string<char,std::char_traits<char>,std::allocator<char> > &),next::sdk::events::BaseEventBinaryBlocking<next::sdk::events::Cycle> *,std::_Ph<1> const &,std::_Ph<2> const &>,void,std::vector<unsigned char,std::allocator<unsigned char> > const &,std::basic_string<char,std::char_traits<char>,std::allocator<char> > &>::_Copy(void *)
FUNC 3c550 33 0 class std::_Func_base<void,std::vector<unsigned char,std::allocator<unsigned char> > const &,__int64,__int64> * std::_Func_impl_no_alloc<std::_Binder<std::_Unforced,void (__cdecl next::sdk::events::BaseEventTemplate<std::vector<unsigned char,std::allocator<unsigned char> >,next::sdk::events::Cycle>::*)(std::vector<unsigned char,std::allocator<unsigned char> > const &,__int64,__int64),next::sdk::events::BaseEventBinaryBlocking<next::sdk::events::Cycle> *,std::_Ph<1> const &,std::_Ph<2> const &,std::_Ph<3> const &>,void,std::vector<unsigned char,std::allocator<unsigned char> > const &,__int64,__int64>::_Copy(void *)
FUNC 3c590 21 0 void std::_Func_impl_no_alloc<std::_Binder<std::_Unforced,void (__cdecl next::sdk::events::BaseEventTemplate<std::vector<unsigned char,std::allocator<unsigned char> >,next::sdk::events::Cycle>::*)(std::basic_string<char,std::char_traits<char>,std::allocator<char> > const &),next::sdk::events::BaseEventBinaryBlocking<next::sdk::events::Cycle> *,std::_Ph<1> const &>,void,std::basic_string<char,std::char_traits<char>,std::allocator<char> > >::_Delete_this(bool)
FUNC 3c5c0 21 0 void std::_Func_impl_no_alloc<std::_Binder<std::_Unforced,void (__cdecl next::sdk::events::BaseEventTemplate<std::vector<unsigned char,std::allocator<unsigned char> >,next::sdk::events::Cycle>::*)(std::vector<unsigned char,std::allocator<unsigned char> > const &,std::basic_string<char,std::char_traits<char>,std::allocator<char> > &),next::sdk::events::BaseEventBinaryBlocking<next::sdk::events::Cycle> *,std::_Ph<1> const &,std::_Ph<2> const &>,void,std::vector<unsigned char,std::allocator<unsigned char> > const &,std::basic_string<char,std::char_traits<char>,std::allocator<char> > &>::_Delete_this(bool)
FUNC 3c5f0 21 0 void std::_Func_impl_no_alloc<std::_Binder<std::_Unforced,void (__cdecl next::sdk::events::BaseEventTemplate<std::vector<unsigned char,std::allocator<unsigned char> >,next::sdk::events::Cycle>::*)(std::vector<unsigned char,std::allocator<unsigned char> > const &,__int64,__int64),next::sdk::events::BaseEventBinaryBlocking<next::sdk::events::Cycle> *,std::_Ph<1> const &,std::_Ph<2> const &,std::_Ph<3> const &>,void,std::vector<unsigned char,std::allocator<unsigned char> > const &,__int64,__int64>::_Delete_this(bool)
FUNC 3c620 12 0 std::_Ref_count_obj<next::sdk::events::BaseEventBinaryImpl>::_Delete_this()
FUNC 3c640 3 0 std::_Ref_count_obj<next::sdk::events::BaseEventBinaryImpl>::_Destroy()
FUNC 3c650 52 0 void std::vector<std::function<void __cdecl(std::basic_string<char,std::char_traits<char>,std::allocator<char> > const &)>,std::allocator<std::function<void __cdecl(std::basic_string<char,std::char_traits<char>,std::allocator<char> > const &)> > >::_Destroy(class std::function<void __cdecl(std::basic_string<char,std::char_traits<char>,std::allocator<char> > const &)> *, class std::function<void __cdecl(std::basic_string<char,std::char_traits<char>,std::allocator<char> > const &)> *)
FUNC 3c6b0 52 0 void std::vector<std::function<void __cdecl(std::vector<unsigned char,std::allocator<unsigned char> > const &,std::basic_string<char,std::char_traits<char>,std::allocator<char> > &)>,std::allocator<std::function<void __cdecl(std::vector<unsigned char,std::allocator<unsigned char> > const &,std::basic_string<char,std::char_traits<char>,std::allocator<char> > &)> > >::_Destroy(class std::function<void __cdecl(std::vector<unsigned char,std::allocator<unsigned char> > const &,std::basic_string<char,std::char_traits<char>,std::allocator<char> > &)> *, class std::function<void __cdecl(std::vector<unsigned char,std::allocator<unsigned char> > const &,std::basic_string<char,std::char_traits<char>,std::allocator<char> > &)> *)
FUNC 3c710 52 0 std::vector<std::function<void >,std::allocator<std::function<void > > >::_Destroy(std::function<void > *,std::function<void > *)
FUNC 3c770 49 0 std::_Hash<std::_Umap_traits<std::basic_string<char,std::char_traits<char>,std::allocator<char> >,next::sdk::events::CycleState,std::_Uhash_compare<std::basic_string<char,std::char_traits<char>,std::allocator<char> >,std::hash<std::basic_string<char,std::char_traits<char>,std::allocator<char> > >,std::equal_to<std::basic_string<char,std::char_traits<char>,std::allocator<char> > > >,std::allocator<std::pair<std::basic_string<char,std::char_traits<char>,std::allocator<char> > const ,next::sdk::events::CycleState> >,0> >::_Destroy_if_node(std::_List_unchecked_iterator<std::_List_val<std::_List_simple_types<std::pair<std::basic_string<char,std::char_traits<char>,std::allocator<char> > const ,next::sdk::events::CycleState> > > >)
FUNC 3c7c0 49 0 std::_Hash<std::_Umap_traits<next::sdk::events::CycleState,std::basic_string<char,std::char_traits<char>,std::allocator<char> >,std::_Uhash_compare<next::sdk::events::CycleState,std::hash<next::sdk::events::CycleState>,std::equal_to<next::sdk::events::CycleState> >,std::allocator<std::pair<next::sdk::events::CycleState const ,std::basic_string<char,std::char_traits<char>,std::allocator<char> > > >,0> >::_Destroy_if_node(std::_List_unchecked_iterator<std::_List_val<std::_List_simple_types<std::pair<next::sdk::events::CycleState const ,std::basic_string<char,std::char_traits<char>,std::allocator<char> > > > > >)
FUNC 3c810 b 0 void std::_Func_impl_no_alloc<std::_Binder<std::_Unforced,void (__cdecl next::sdk::events::BaseEventTemplate<std::vector<unsigned char,std::allocator<unsigned char> >,next::sdk::events::Cycle>::*)(std::basic_string<char,std::char_traits<char>,std::allocator<char> > const &),next::sdk::events::BaseEventBinaryBlocking<next::sdk::events::Cycle> *,std::_Ph<1> const &>,void,std::basic_string<char,std::char_traits<char>,std::allocator<char> > >::_Do_call(class std::basic_string<char,std::char_traits<char>,std::allocator<char> > *)
FUNC 3c820 b 0 void std::_Func_impl_no_alloc<std::_Binder<std::_Unforced,void (__cdecl next::sdk::events::BaseEventTemplate<std::vector<unsigned char,std::allocator<unsigned char> >,next::sdk::events::Cycle>::*)(std::vector<unsigned char,std::allocator<unsigned char> > const &,std::basic_string<char,std::char_traits<char>,std::allocator<char> > &),next::sdk::events::BaseEventBinaryBlocking<next::sdk::events::Cycle> *,std::_Ph<1> const &,std::_Ph<2> const &>,void,std::vector<unsigned char,std::allocator<unsigned char> > const &,std::basic_string<char,std::char_traits<char>,std::allocator<char> > &>::_Do_call(const class std::vector<unsigned char,std::allocator<unsigned char> > & const, class std::basic_string<char,std::char_traits<char>,std::allocator<char> > & const)
FUNC 3c830 11 0 void std::_Func_impl_no_alloc<std::_Binder<std::_Unforced,void (__cdecl next::sdk::events::BaseEventTemplate<std::vector<unsigned char,std::allocator<unsigned char> >,next::sdk::events::Cycle>::*)(std::vector<unsigned char,std::allocator<unsigned char> > const &,__int64,__int64),next::sdk::events::BaseEventBinaryBlocking<next::sdk::events::Cycle> *,std::_Ph<1> const &,std::_Ph<2> const &,std::_Ph<3> const &>,void,std::vector<unsigned char,std::allocator<unsigned char> > const &,__int64,__int64>::_Do_call(const class std::vector<unsigned char,std::allocator<unsigned char> > & const, __int64 *, __int64 *)
FUNC 3c850 5 0 const void * std::_Func_impl_no_alloc<std::_Binder<std::_Unforced,void (__cdecl next::sdk::events::BaseEventTemplate<std::vector<unsigned char,std::allocator<unsigned char> >,next::sdk::events::Cycle>::*)(std::basic_string<char,std::char_traits<char>,std::allocator<char> > const &),next::sdk::events::BaseEventBinaryBlocking<next::sdk::events::Cycle> *,std::_Ph<1> const &>,void,std::basic_string<char,std::char_traits<char>,std::allocator<char> > >::_Get()
FUNC 3c860 5 0 const void * std::_Func_impl_no_alloc<std::_Binder<std::_Unforced,void (__cdecl next::sdk::events::BaseEventTemplate<std::vector<unsigned char,std::allocator<unsigned char> >,next::sdk::events::Cycle>::*)(std::vector<unsigned char,std::allocator<unsigned char> > const &,std::basic_string<char,std::char_traits<char>,std::allocator<char> > &),next::sdk::events::BaseEventBinaryBlocking<next::sdk::events::Cycle> *,std::_Ph<1> const &,std::_Ph<2> const &>,void,std::vector<unsigned char,std::allocator<unsigned char> > const &,std::basic_string<char,std::char_traits<char>,std::allocator<char> > &>::_Get()
FUNC 3c870 5 0 const void * std::_Func_impl_no_alloc<std::_Binder<std::_Unforced,void (__cdecl next::sdk::events::BaseEventTemplate<std::vector<unsigned char,std::allocator<unsigned char> >,next::sdk::events::Cycle>::*)(std::vector<unsigned char,std::allocator<unsigned char> > const &,__int64,__int64),next::sdk::events::BaseEventBinaryBlocking<next::sdk::events::Cycle> *,std::_Ph<1> const &,std::_Ph<2> const &,std::_Ph<3> const &>,void,std::vector<unsigned char,std::allocator<unsigned char> > const &,__int64,__int64>::_Get()
FUNC 3c880 4 0 std::_Vector_alloc<std::_Vec_base_types<std::_List_unchecked_iterator<std::_List_val<std::_List_simple_types<std::pair<std::basic_string<char,std::char_traits<char>,std::allocator<char> > const ,next::sdk::events::CycleState> > > >,std::allocator<std::_List_unchecked_iterator<std::_List_val<std::_List_simple_types<std::pair<std::basic_string<char,std::char_traits<char>,std::allocator<char> > const ,next::sdk::events::CycleState> > > > > > >::_Getal()
FUNC 3c890 4 0 std::_Vector_alloc<std::_Vec_base_types<std::_List_unchecked_iterator<std::_List_val<std::_List_simple_types<std::pair<next::sdk::events::CycleState const ,std::basic_string<char,std::char_traits<char>,std::allocator<char> > > > > >,std::allocator<std::_List_unchecked_iterator<std::_List_val<std::_List_simple_types<std::pair<next::sdk::events::CycleState const ,std::basic_string<char,std::char_traits<char>,std::allocator<char> > > > > > > > >::_Getal()
FUNC 3c8a0 188 0 std::_Hash<std::_Umap_traits<std::basic_string<char,std::char_traits<char>,std::allocator<char> >,next::sdk::events::CycleState,std::_Uhash_compare<std::basic_string<char,std::char_traits<char>,std::allocator<char> >,std::hash<std::basic_string<char,std::char_traits<char>,std::allocator<char> > >,std::equal_to<std::basic_string<char,std::char_traits<char>,std::allocator<char> > > >,std::allocator<std::pair<std::basic_string<char,std::char_traits<char>,std::allocator<char> > const ,next::sdk::events::CycleState> >,0> >::_Init(unsigned __int64)
FUNC 3ca30 188 0 std::_Hash<std::_Umap_traits<next::sdk::events::CycleState,std::basic_string<char,std::char_traits<char>,std::allocator<char> >,std::_Uhash_compare<next::sdk::events::CycleState,std::hash<next::sdk::events::CycleState>,std::equal_to<next::sdk::events::CycleState> >,std::allocator<std::pair<next::sdk::events::CycleState const ,std::basic_string<char,std::char_traits<char>,std::allocator<char> > > >,0> >::_Init(unsigned __int64)
FUNC 3cbc0 7 0 std::_Hash<std::_Umap_traits<std::basic_string<char,std::char_traits<char>,std::allocator<char> >,next::sdk::events::CycleState,std::_Uhash_compare<std::basic_string<char,std::char_traits<char>,std::allocator<char> >,std::hash<std::basic_string<char,std::char_traits<char>,std::allocator<char> > >,std::equal_to<std::basic_string<char,std::char_traits<char>,std::allocator<char> > > >,std::allocator<std::pair<std::basic_string<char,std::char_traits<char>,std::allocator<char> > const ,next::sdk::events::CycleState> >,0> >::_Make_iter(std::_List_unchecked_const_iterator<std::_List_val<std::_List_simple_types<std::pair<std::basic_string<char,std::char_traits<char>,std::allocator<char> > const ,next::sdk::events::CycleState> > >,std::_Iterator_base0>)
FUNC 3cbd0 7 0 std::_Hash<std::_Umap_traits<next::sdk::events::CycleState,std::basic_string<char,std::char_traits<char>,std::allocator<char> >,std::_Uhash_compare<next::sdk::events::CycleState,std::hash<next::sdk::events::CycleState>,std::equal_to<next::sdk::events::CycleState> >,std::allocator<std::pair<next::sdk::events::CycleState const ,std::basic_string<char,std::char_traits<char>,std::allocator<char> > > >,0> >::_Make_iter(std::_List_unchecked_const_iterator<std::_List_val<std::_List_simple_types<std::pair<next::sdk::events::CycleState const ,std::basic_string<char,std::char_traits<char>,std::allocator<char> > > > >,std::_Iterator_base0>)
FUNC 3cbe0 25 0 class std::_Func_base<void,std::basic_string<char,std::char_traits<char>,std::allocator<char> > > * std::_Func_impl_no_alloc<std::_Binder<std::_Unforced,void (__cdecl next::sdk::events::BaseEventTemplate<std::vector<unsigned char,std::allocator<unsigned char> >,next::sdk::events::Cycle>::*)(std::basic_string<char,std::char_traits<char>,std::allocator<char> > const &),next::sdk::events::BaseEventBinaryBlocking<next::sdk::events::Cycle> *,std::_Ph<1> const &>,void,std::basic_string<char,std::char_traits<char>,std::allocator<char> > >::_Move(void *)
FUNC 3cc10 2c 0 class std::_Func_base<void,std::vector<unsigned char,std::allocator<unsigned char> > const &,std::basic_string<char,std::char_traits<char>,std::allocator<char> > &> * std::_Func_impl_no_alloc<std::_Binder<std::_Unforced,void (__cdecl next::sdk::events::BaseEventTemplate<std::vector<unsigned char,std::allocator<unsigned char> >,next::sdk::events::Cycle>::*)(std::vector<unsigned char,std::allocator<unsigned char> > const &,std::basic_string<char,std::char_traits<char>,std::allocator<char> > &),next::sdk::events::BaseEventBinaryBlocking<next::sdk::events::Cycle> *,std::_Ph<1> const &,std::_Ph<2> const &>,void,std::vector<unsigned char,std::allocator<unsigned char> > const &,std::basic_string<char,std::char_traits<char>,std::allocator<char> > &>::_Move(void *)
FUNC 3cc40 33 0 class std::_Func_base<void,std::vector<unsigned char,std::allocator<unsigned char> > const &,__int64,__int64> * std::_Func_impl_no_alloc<std::_Binder<std::_Unforced,void (__cdecl next::sdk::events::BaseEventTemplate<std::vector<unsigned char,std::allocator<unsigned char> >,next::sdk::events::Cycle>::*)(std::vector<unsigned char,std::allocator<unsigned char> > const &,__int64,__int64),next::sdk::events::BaseEventBinaryBlocking<next::sdk::events::Cycle> *,std::_Ph<1> const &,std::_Ph<2> const &,std::_Ph<3> const &>,void,std::vector<unsigned char,std::allocator<unsigned char> > const &,__int64,__int64>::_Move(void *)
FUNC 3cc80 e4 0 std::vector<std::_List_unchecked_iterator<std::_List_val<std::_List_simple_types<std::pair<std::basic_string<char,std::char_traits<char>,std::allocator<char> > const ,next::sdk::events::CycleState> > > >,std::allocator<std::_List_unchecked_iterator<std::_List_val<std::_List_simple_types<std::pair<std::basic_string<char,std::char_traits<char>,std::allocator<char> > const ,next::sdk::events::CycleState> > > > > >::_Reallocate_exactly(unsigned __int64)
FUNC 3cd70 e4 0 std::vector<std::_List_unchecked_iterator<std::_List_val<std::_List_simple_types<std::pair<next::sdk::events::CycleState const ,std::basic_string<char,std::char_traits<char>,std::allocator<char> > > > > >,std::allocator<std::_List_unchecked_iterator<std::_List_val<std::_List_simple_types<std::pair<next::sdk::events::CycleState const ,std::basic_string<char,std::char_traits<char>,std::allocator<char> > > > > > > >::_Reallocate_exactly(unsigned __int64)
FUNC 3ce60 8 0 const class type_info & const std::_Func_impl_no_alloc<std::_Binder<std::_Unforced,void (__cdecl next::sdk::events::BaseEventTemplate<std::vector<unsigned char,std::allocator<unsigned char> >,next::sdk::events::Cycle>::*)(std::basic_string<char,std::char_traits<char>,std::allocator<char> > const &),next::sdk::events::BaseEventBinaryBlocking<next::sdk::events::Cycle> *,std::_Ph<1> const &>,void,std::basic_string<char,std::char_traits<char>,std::allocator<char> > >::_Target_type()
FUNC 3ce70 8 0 const class type_info & const std::_Func_impl_no_alloc<std::_Binder<std::_Unforced,void (__cdecl next::sdk::events::BaseEventTemplate<std::vector<unsigned char,std::allocator<unsigned char> >,next::sdk::events::Cycle>::*)(std::vector<unsigned char,std::allocator<unsigned char> > const &,std::basic_string<char,std::char_traits<char>,std::allocator<char> > &),next::sdk::events::BaseEventBinaryBlocking<next::sdk::events::Cycle> *,std::_Ph<1> const &,std::_Ph<2> const &>,void,std::vector<unsigned char,std::allocator<unsigned char> > const &,std::basic_string<char,std::char_traits<char>,std::allocator<char> > &>::_Target_type()
FUNC 3ce80 8 0 const class type_info & const std::_Func_impl_no_alloc<std::_Binder<std::_Unforced,void (__cdecl next::sdk::events::BaseEventTemplate<std::vector<unsigned char,std::allocator<unsigned char> >,next::sdk::events::Cycle>::*)(std::vector<unsigned char,std::allocator<unsigned char> > const &,__int64,__int64),next::sdk::events::BaseEventBinaryBlocking<next::sdk::events::Cycle> *,std::_Ph<1> const &,std::_Ph<2> const &,std::_Ph<3> const &>,void,std::vector<unsigned char,std::allocator<unsigned char> > const &,__int64,__int64>::_Target_type()
FUNC 3ce90 8f 0 std::vector<std::basic_string<char,std::char_traits<char>,std::allocator<char> >,std::allocator<std::basic_string<char,std::char_traits<char>,std::allocator<char> > > >::_Tidy()
FUNC 3cf20 b0 0 class std::function<void __cdecl(std::basic_string<char,std::char_traits<char>,std::allocator<char> > const &)> * std::vector<std::function<void __cdecl(std::basic_string<char,std::char_traits<char>,std::allocator<char> > const &)>,std::allocator<std::function<void __cdecl(std::basic_string<char,std::char_traits<char>,std::allocator<char> > const &)> > >::_Umove(class std::function<void __cdecl(std::basic_string<char,std::char_traits<char>,std::allocator<char> > const &)> *, class std::function<void __cdecl(std::basic_string<char,std::char_traits<char>,std::allocator<char> > const &)> *, class std::function<void __cdecl(std::basic_string<char,std::char_traits<char>,std::allocator<char> > const &)> *)
FUNC 3cfd0 b0 0 class std::function<void __cdecl(std::vector<unsigned char,std::allocator<unsigned char> > const &,std::basic_string<char,std::char_traits<char>,std::allocator<char> > &)> * std::vector<std::function<void __cdecl(std::vector<unsigned char,std::allocator<unsigned char> > const &,std::basic_string<char,std::char_traits<char>,std::allocator<char> > &)>,std::allocator<std::function<void __cdecl(std::vector<unsigned char,std::allocator<unsigned char> > const &,std::basic_string<char,std::char_traits<char>,std::allocator<char> > &)> > >::_Umove(class std::function<void __cdecl(std::vector<unsigned char,std::allocator<unsigned char> > const &,std::basic_string<char,std::char_traits<char>,std::allocator<char> > &)> *, class std::function<void __cdecl(std::vector<unsigned char,std::allocator<unsigned char> > const &,std::basic_string<char,std::char_traits<char>,std::allocator<char> > &)> *, class std::function<void __cdecl(std::vector<unsigned char,std::allocator<unsigned char> > const &,std::basic_string<char,std::char_traits<char>,std::allocator<char> > &)> *)
FUNC 3d080 b0 0 std::vector<std::function<void >,std::allocator<std::function<void > > >::_Umove(std::function<void > *,std::function<void > *,std::function<void > *)
FUNC 3d130 11 0 std::vector<std::_List_unchecked_iterator<std::_List_val<std::_List_simple_types<std::pair<std::basic_string<char,std::char_traits<char>,std::allocator<char> > const ,next::sdk::events::CycleState> > > >,std::allocator<std::_List_unchecked_iterator<std::_List_val<std::_List_simple_types<std::pair<std::basic_string<char,std::char_traits<char>,std::allocator<char> > const ,next::sdk::events::CycleState> > > > > >::_Xlength()
FUNC 3d150 11 0 std::vector<std::_List_unchecked_iterator<std::_List_val<std::_List_simple_types<std::pair<next::sdk::events::CycleState const ,std::basic_string<char,std::char_traits<char>,std::allocator<char> > > > > >,std::allocator<std::_List_unchecked_iterator<std::_List_val<std::_List_simple_types<std::pair<next::sdk::events::CycleState const ,std::basic_string<char,std::char_traits<char>,std::allocator<char> > > > > > > >::_Xlength()
FUNC 3d170 11 0 std::vector<std::basic_string<char,std::char_traits<char>,std::allocator<char> >,std::allocator<std::basic_string<char,std::char_traits<char>,std::allocator<char> > > >::_Xlength()
FUNC 3d190 11 0 void std::vector<std::function<void __cdecl(std::basic_string<char,std::char_traits<char>,std::allocator<char> > const &)>,std::allocator<std::function<void __cdecl(std::basic_string<char,std::char_traits<char>,std::allocator<char> > const &)> > >::_Xlength()
FUNC 3d1b0 11 0 void std::vector<std::function<void __cdecl(std::vector<unsigned char,std::allocator<unsigned char> > const &,std::basic_string<char,std::char_traits<char>,std::allocator<char> > &)>,std::allocator<std::function<void __cdecl(std::vector<unsigned char,std::allocator<unsigned char> > const &,std::basic_string<char,std::char_traits<char>,std::allocator<char> > &)> > >::_Xlength()
FUNC 3d1d0 11 0 std::vector<std::function<void >,std::allocator<std::function<void > > >::_Xlength()
FUNC 3d1f0 11 0 std::_String_val<std::_Simple_types<char> >::_Xran()
FUNC 3d210 6c 0 next::sdk::events::BaseEventTemplate<std::vector<unsigned char,std::allocator<unsigned char> >,next::sdk::events::Cycle>::addEventHook(std::function<void > const &)
FUNC 3d280 fe 0 next::sdk::events::BaseEventTemplate<std::vector<unsigned char,std::allocator<unsigned char> >,next::sdk::events::Cycle>::addListenerAddedHook(std::function<void > const &)
FUNC 3d380 6c 0 next::sdk::events::BaseEventTemplate<std::vector<unsigned char,std::allocator<unsigned char> >,next::sdk::events::Cycle>::addSyncEventHook(std::function<void > const &)
FUNC 3d3f0 75 0 std::allocator<std::_List_unchecked_iterator<std::_List_val<std::_List_simple_types<std::pair<std::basic_string<char,std::char_traits<char>,std::allocator<char> > const ,next::sdk::events::CycleState> > > > >::allocate(unsigned __int64)
FUNC 3d470 75 0 std::allocator<std::_List_unchecked_iterator<std::_List_val<std::_List_simple_types<std::pair<next::sdk::events::CycleState const ,std::basic_string<char,std::char_traits<char>,std::allocator<char> > > > > > >::allocate(unsigned __int64)
FUNC 3d4f0 3f 0 void std::allocator<std::_List_node<std::pair<std::basic_string<char,std::char_traits<char>,std::allocator<char> > const ,enum next::sdk::events::CycleState>,void *> >::deallocate(struct std::_List_node<std::pair<std::basic_string<char,std::char_traits<char>,std::allocator<char> > const ,enum next::sdk::events::CycleState>,void *> *, const unsigned __int64)
FUNC 3d530 3f 0 void std::allocator<std::_List_node<std::pair<enum next::sdk::events::CycleState const ,std::basic_string<char,std::char_traits<char>,std::allocator<char> > >,void *> >::deallocate(struct std::_List_node<std::pair<enum next::sdk::events::CycleState const ,std::basic_string<char,std::char_traits<char>,std::allocator<char> > >,void *> *, const unsigned __int64)
FUNC 3d570 43 0 std::allocator<std::_List_unchecked_iterator<std::_List_val<std::_List_simple_types<std::pair<std::basic_string<char,std::char_traits<char>,std::allocator<char> > const ,next::sdk::events::CycleState> > > > >::deallocate(std::_List_unchecked_iterator<std::_List_val<std::_List_simple_types<std::pair<std::basic_string<char,std::char_traits<char>,std::allocator<char> > const ,next::sdk::events::CycleState> > > > * const,unsigned __int64)
FUNC 3d5c0 43 0 std::allocator<std::_List_unchecked_iterator<std::_List_val<std::_List_simple_types<std::pair<next::sdk::events::CycleState const ,std::basic_string<char,std::char_traits<char>,std::allocator<char> > > > > > >::deallocate(std::_List_unchecked_iterator<std::_List_val<std::_List_simple_types<std::pair<next::sdk::events::CycleState const ,std::basic_string<char,std::char_traits<char>,std::allocator<char> > > > > > * const,unsigned __int64)
FUNC 3d610 42 0 void std::allocator<std::function<void __cdecl(std::basic_string<char,std::char_traits<char>,std::allocator<char> > const &)> >::deallocate(class std::function<void __cdecl(std::basic_string<char,std::char_traits<char>,std::allocator<char> > const &)> *, const unsigned __int64)
FUNC 3d660 42 0 void std::allocator<std::function<void __cdecl(std::vector<unsigned char,std::allocator<unsigned char> > const &,std::basic_string<char,std::char_traits<char>,std::allocator<char> > &)> >::deallocate(class std::function<void __cdecl(std::vector<unsigned char,std::allocator<unsigned char> > const &,std::basic_string<char,std::char_traits<char>,std::allocator<char> > &)> *, const unsigned __int64)
FUNC 3d6b0 42 0 std::allocator<std::function<void > >::deallocate(std::function<void > * const,unsigned __int64)
FUNC 3d700 4ad 0 next::sdk::events::demangle_name(char const *)
FUNC 3dbb0 494 0 next::sdk::events::CycleEvent::deserializeEventPayload(std::vector<unsigned char,std::allocator<unsigned char> > const &)
FUNC 3e050 21 0 next::sdk::events::BaseEventTemplate<std::vector<unsigned char,std::allocator<unsigned char> >,next::sdk::events::Cycle>::getClassName()
FUNC 3e080 1c 0 next::sdk::events::BaseEventTemplate<std::vector<unsigned char,std::allocator<unsigned char> >,next::sdk::events::Cycle>::getCurrentNanoSeconds()
FUNC 3e0a0 6b 0 next::sdk::events::BaseEventTemplate<std::vector<unsigned char,std::allocator<unsigned char> >,next::sdk::events::Cycle>::getEventData()
FUNC 3e110 21 0 next::sdk::events::BaseEventTemplate<std::vector<unsigned char,std::allocator<unsigned char> >,next::sdk::events::Cycle>::getEventName()
FUNC 3e140 e 0 next::sdk::events::BaseEventTemplate<std::vector<unsigned char,std::allocator<unsigned char> >,next::sdk::events::Cycle>::getHeader()
FUNC 3e150 258 0 next::sdk::events::BaseEventBinaryBlocking<next::sdk::events::Cycle>::initialize()
FUNC 3e3b0 167 0 next::sdk::events::BaseEventTemplate<std::vector<unsigned char,std::allocator<unsigned char> >,next::sdk::events::Cycle>::onEvent(std::vector<unsigned char,std::allocator<unsigned char> > const &,__int64,__int64)
FUNC 3e520 f3 0 next::sdk::events::BaseEventTemplate<std::vector<unsigned char,std::allocator<unsigned char> >,next::sdk::events::Cycle>::onEventListenerAdded(std::basic_string<char,std::char_traits<char>,std::allocator<char> > const &)
FUNC 3e620 f1 0 next::sdk::events::BaseEventTemplate<std::vector<unsigned char,std::allocator<unsigned char> >,next::sdk::events::Cycle>::onSyncEvent(std::vector<unsigned char,std::allocator<unsigned char> > const &,std::basic_string<char,std::char_traits<char>,std::allocator<char> > &)
FUNC 3e720 be 0 next::sdk::events::BaseEventBinaryBlocking<next::sdk::events::Cycle>::publish(next::sdk::events::Cycle const &)
FUNC 3e7e0 1b7 0 next::sdk::events::BaseEventBinaryBlocking<next::sdk::events::Cycle>::publish(next::sdk::events::Cycle const &,std::list<std::basic_string<char,std::char_traits<char>,std::allocator<char> >,std::allocator<std::basic_string<char,std::char_traits<char>,std::allocator<char> > > > &)
FUNC 3e9a0 218 0 next::sdk::events::CycleEvent::serializeEventPayload(next::sdk::events::Cycle const &)
FUNC 3ebc0 1b2 0 next::sdk::events::BaseEventBinaryBlocking<next::sdk::events::Cycle>::subscribe()
FUNC 3ed80 1d0 0 void std::vector<std::pair<std::basic_string<char,std::char_traits<char>,std::allocator<char> >,unsigned int>,std::allocator<std::pair<std::basic_string<char,std::char_traits<char>,std::allocator<char> >,unsigned int> > >::_Assign_range<std::pair<std::basic_string<char,std::char_traits<char>,std::allocator<char> >,unsigned int> *>(struct std::pair<std::basic_string<char,std::char_traits<char>,std::allocator<char> >,unsigned int> *, struct std::pair<std::basic_string<char,std::char_traits<char>,std::allocator<char> >,unsigned int> *, struct std::forward_iterator_tag)
FUNC 3ef50 72 0 struct std::pair<std::basic_string<char,std::char_traits<char>,std::allocator<char> >,unsigned int> * std::_Copy_unchecked<std::pair<std::basic_string<char,std::char_traits<char>,std::allocator<char> >,unsigned int> *,std::pair<std::basic_string<char,std::char_traits<char>,std::allocator<char> >,unsigned int> *>(struct std::pair<std::basic_string<char,std::char_traits<char>,std::allocator<char> >,unsigned int> *, struct std::pair<std::basic_string<char,std::char_traits<char>,std::allocator<char> >,unsigned int> *, struct std::pair<std::basic_string<char,std::char_traits<char>,std::allocator<char> >,unsigned int> *)
FUNC 3efd0 283 0 class std::function<void __cdecl(std::vector<unsigned char,std::allocator<unsigned char> > const &)> * std::vector<std::function<void __cdecl(std::vector<unsigned char,std::allocator<unsigned char> > const &)>,std::allocator<std::function<void __cdecl(std::vector<unsigned char,std::allocator<unsigned char> > const &)> > >::_Emplace_reallocate<std::function<void __cdecl(std::vector<unsigned char,std::allocator<unsigned char> > const &)> const &>(class std::function<void __cdecl(std::vector<unsigned char,std::allocator<unsigned char> > const &)> *, const class std::function<void __cdecl(std::vector<unsigned char,std::allocator<unsigned char> > const &)> & const)
FUNC 3f260 31d 0 std::vector<std::pair<std::basic_string<char,std::char_traits<char>,std::allocator<char> >,unsigned int>,std::allocator<std::pair<std::basic_string<char,std::char_traits<char>,std::allocator<char> >,unsigned int> > >::_Emplace_reallocate<std::pair<std::basic_string<char,std::char_traits<char>,std::allocator<char> >,unsigned int> >(std::pair<std::basic_string<char,std::char_traits<char>,std::allocator<char> >,unsigned int> * const,std::pair<std::basic_string<char,std::char_traits<char>,std::allocator<char> >,unsigned int> &&)
FUNC 3f580 76 0 struct std::pair<std::basic_string<char,std::char_traits<char>,std::allocator<char> >,unsigned int> * std::vector<std::pair<std::basic_string<char,std::char_traits<char>,std::allocator<char> >,unsigned int>,std::allocator<std::pair<std::basic_string<char,std::char_traits<char>,std::allocator<char> >,unsigned int> > >::_Ucopy<std::pair<std::basic_string<char,std::char_traits<char>,std::allocator<char> >,unsigned int> *>(struct std::pair<std::basic_string<char,std::char_traits<char>,std::allocator<char> >,unsigned int> *, struct std::pair<std::basic_string<char,std::char_traits<char>,std::allocator<char> >,unsigned int> *, struct std::pair<std::basic_string<char,std::char_traits<char>,std::allocator<char> >,unsigned int> *)
FUNC 3f600 1a6 0 next::sdk::events::BaseEventBinary<std::vector<std::pair<std::basic_string<char,std::char_traits<char>,std::allocator<char> >,unsigned int>,std::allocator<std::pair<std::basic_string<char,std::char_traits<char>,std::allocator<char> >,unsigned int> > > >::BaseEventBinary<std::vector<std::pair<std::basic_string<char,std::char_traits<char>,std::allocator<char> >,unsigned int>,std::allocator<std::pair<std::basic_string<char,std::char_traits<char>,std::allocator<char> >,unsigned int> > > >(std::basic_string<char,std::char_traits<char>,std::allocator<char> >)
FUNC 3f7b0 137 0 next::sdk::events::BaseEventTemplate<std::vector<unsigned char,std::allocator<unsigned char> >,std::vector<std::pair<std::basic_string<char,std::char_traits<char>,std::allocator<char> >,unsigned int>,std::allocator<std::pair<std::basic_string<char,std::char_traits<char>,std::allocator<char> >,unsigned int> > > >::BaseEventTemplate<std::vector<unsigned char,std::allocator<unsigned char> >,std::vector<std::pair<std::basic_string<char,std::char_traits<char>,std::allocator<char> >,unsigned int>,std::allocator<std::pair<std::basic_string<char,std::char_traits<char>,std::allocator<char> >,unsigned int> > > >(std::basic_string<char,std::char_traits<char>,std::allocator<char> >,std::basic_string<char,std::char_traits<char>,std::allocator<char> >)
FUNC 3f8f0 b3 0 std::vector<std::pair<std::basic_string<char,std::char_traits<char>,std::allocator<char> >,unsigned int>,std::allocator<std::pair<std::basic_string<char,std::char_traits<char>,std::allocator<char> >,unsigned int> > >::vector<std::pair<std::basic_string<char,std::char_traits<char>,std::allocator<char> >,unsigned int>,std::allocator<std::pair<std::basic_string<char,std::char_traits<char>,std::allocator<char> >,unsigned int> > >(std::vector<std::pair<std::basic_string<char,std::char_traits<char>,std::allocator<char> >,unsigned int>,std::allocator<std::pair<std::basic_string<char,std::char_traits<char>,std::allocator<char> >,unsigned int> > > const &)
FUNC 3f9b0 7f 0 next::sdk::events::CycleInformationEvent::CycleInformationEvent(std::basic_string<char,std::char_traits<char>,std::allocator<char> >)
FUNC 3fa30 279 0 next::sdk::events::BaseEventBinary<std::vector<std::pair<std::basic_string<char,std::char_traits<char>,std::allocator<char> >,unsigned int>,std::allocator<std::pair<std::basic_string<char,std::char_traits<char>,std::allocator<char> >,unsigned int> > > >::~BaseEventBinary<std::vector<std::pair<std::basic_string<char,std::char_traits<char>,std::allocator<char> >,unsigned int>,std::allocator<std::pair<std::basic_string<char,std::char_traits<char>,std::allocator<char> >,unsigned int> > > >()
FUNC 3fcb0 d2 0 next::sdk::events::BaseEventTemplate<std::vector<unsigned char,std::allocator<unsigned char> >,std::vector<std::pair<std::basic_string<char,std::char_traits<char>,std::allocator<char> >,unsigned int>,std::allocator<std::pair<std::basic_string<char,std::char_traits<char>,std::allocator<char> >,unsigned int> > > >::~BaseEventTemplate<std::vector<unsigned char,std::allocator<unsigned char> >,std::vector<std::pair<std::basic_string<char,std::char_traits<char>,std::allocator<char> >,unsigned int>,std::allocator<std::pair<std::basic_string<char,std::char_traits<char>,std::allocator<char> >,unsigned int> > > >()
FUNC 3fd90 2c 0 void std::_Func_class<void,std::vector<unsigned char,std::allocator<unsigned char> > const &>::~_Func_class<void,std::vector<unsigned char,std::allocator<unsigned char> > const &>()
FUNC 3fdc0 32 0 void std::_Uninitialized_backout_al<std::pair<std::basic_string<char,std::char_traits<char>,std::allocator<char> >,unsigned int> *,std::allocator<std::pair<std::basic_string<char,std::char_traits<char>,std::allocator<char> >,unsigned int> > >::~_Uninitialized_backout_al<std::pair<std::basic_string<char,std::char_traits<char>,std::allocator<char> >,unsigned int> *,std::allocator<std::pair<std::basic_string<char,std::char_traits<char>,std::allocator<char> >,unsigned int> > >()
FUNC 3fe00 52 0 void std::_Uninitialized_backout_al<std::function<void __cdecl(std::vector<unsigned char,std::allocator<unsigned char> > const &)> *,std::allocator<std::function<void __cdecl(std::vector<unsigned char,std::allocator<unsigned char> > const &)> > >::~_Uninitialized_backout_al<std::function<void __cdecl(std::vector<unsigned char,std::allocator<unsigned char> > const &)> *,std::allocator<std::function<void __cdecl(std::vector<unsigned char,std::allocator<unsigned char> > const &)> > >()
FUNC 3fe60 2c 0 void std::function<void __cdecl(std::vector<unsigned char,std::allocator<unsigned char> > const &)>::~function<void __cdecl(std::vector<unsigned char,std::allocator<unsigned char> > const &)>()
FUNC 3fe90 5 0 std::pair<std::basic_string<char,std::char_traits<char>,std::allocator<char> >,unsigned int>::~pair<std::basic_string<char,std::char_traits<char>,std::allocator<char> >,unsigned int>()
FUNC 3fea0 18 0 std::vector<std::pair<std::basic_string<char,std::char_traits<char>,std::allocator<char> >,unsigned int>,std::allocator<std::pair<std::basic_string<char,std::char_traits<char>,std::allocator<char> >,unsigned int> > >::~vector<std::pair<std::basic_string<char,std::char_traits<char>,std::allocator<char> >,unsigned int>,std::allocator<std::pair<std::basic_string<char,std::char_traits<char>,std::allocator<char> >,unsigned int> > >()
FUNC 3fec0 b6 0 void std::vector<std::function<void __cdecl(std::vector<unsigned char,std::allocator<unsigned char> > const &)>,std::allocator<std::function<void __cdecl(std::vector<unsigned char,std::allocator<unsigned char> > const &)> > >::~vector<std::function<void __cdecl(std::vector<unsigned char,std::allocator<unsigned char> > const &)>,std::allocator<std::function<void __cdecl(std::vector<unsigned char,std::allocator<unsigned char> > const &)> > >()
FUNC 3ff80 5 0 next::sdk::events::CycleInformationEvent::~CycleInformationEvent()
PUBLIC 3ff88 0 [thunk]:next::sdk::events::BaseEventTemplate<std::vector<unsigned char,std::allocator<unsigned char> >,std::vector<std::pair<std::basic_string<char,std::char_traits<char>,std::allocator<char> >,unsigned int>,std::allocator<std::pair<std::basic_string<char,std::char_traits<char>,std::allocator<char> >,unsigned int> > > >::`vcall'{88,{flat}}' }'
PUBLIC 3ff90 0 [thunk]:next::sdk::events::BaseEventTemplate<std::vector<unsigned char,std::allocator<unsigned char> >,std::vector<std::pair<std::basic_string<char,std::char_traits<char>,std::allocator<char> >,unsigned int>,std::allocator<std::pair<std::basic_string<char,std::char_traits<char>,std::allocator<char> >,unsigned int> > > >::`vcall'{96,{flat}}' }'
FUNC 3ffa0 96 0 next::sdk::events::BaseEventBinary<std::vector<std::pair<std::basic_string<char,std::char_traits<char>,std::allocator<char> >,unsigned int>,std::allocator<std::pair<std::basic_string<char,std::char_traits<char>,std::allocator<char> >,unsigned int> > > >::`vector deleting destructor'(unsigned int)
FUNC 40040 96 0 next::sdk::events::BaseEventTemplate<std::vector<unsigned char,std::allocator<unsigned char> >,std::vector<std::pair<std::basic_string<char,std::char_traits<char>,std::allocator<char> >,unsigned int>,std::allocator<std::pair<std::basic_string<char,std::char_traits<char>,std::allocator<char> >,unsigned int> > > >::`vector deleting destructor'(unsigned int)
FUNC 400e0 96 0 next::sdk::events::CycleInformationEvent::`vector deleting destructor'(unsigned int)
FUNC 40180 34 0 next::sdk::events::BaseEventBinary<std::vector<std::pair<std::basic_string<char,std::char_traits<char>,std::allocator<char> >,unsigned int>,std::allocator<std::pair<std::basic_string<char,std::char_traits<char>,std::allocator<char> >,unsigned int> > > >::`scalar deleting destructor'(unsigned int)
FUNC 401c0 34 0 next::sdk::events::BaseEventTemplate<std::vector<unsigned char,std::allocator<unsigned char> >,std::vector<std::pair<std::basic_string<char,std::char_traits<char>,std::allocator<char> >,unsigned int>,std::allocator<std::pair<std::basic_string<char,std::char_traits<char>,std::allocator<char> >,unsigned int> > > >::`scalar deleting destructor'(unsigned int)
FUNC 40200 34 0 next::sdk::events::CycleInformationEvent::`scalar deleting destructor'(unsigned int)
FUNC 40240 16 0 class std::_Func_base<void,std::vector<unsigned char,std::allocator<unsigned char> > const &,__int64,__int64> * std::_Func_impl_no_alloc<<lambda_6fbe473982a2c21c278b2aa4e08ee88f>,void,std::vector<unsigned char,std::allocator<unsigned char> > const &,__int64,__int64>::_Copy(void *)
FUNC 40260 25 0 class std::_Func_base<void,std::basic_string<char,std::char_traits<char>,std::allocator<char> > > * std::_Func_impl_no_alloc<std::_Binder<std::_Unforced,void (__cdecl next::sdk::events::BaseEventTemplate<std::vector<unsigned char,std::allocator<unsigned char> >,std::vector<std::pair<std::basic_string<char,std::char_traits<char>,std::allocator<char> >,unsigned int>,std::allocator<std::pair<std::basic_string<char,std::char_traits<char>,std::allocator<char> >,unsigned int> > > >::*)(std::basic_string<char,std::char_traits<char>,std::allocator<char> > const &),next::sdk::events::BaseEventBinary<std::vector<std::pair<std::basic_string<char,std::char_traits<char>,std::allocator<char> >,unsigned int>,std::allocator<std::pair<std::basic_string<char,std::char_traits<char>,std::allocator<char> >,unsigned int> > > > *,std::_Ph<1> const &>,void,std::basic_string<char,std::char_traits<char>,std::allocator<char> > >::_Copy(void *)
FUNC 40290 33 0 class std::_Func_base<void,std::vector<unsigned char,std::allocator<unsigned char> > const &,__int64,__int64> * std::_Func_impl_no_alloc<std::_Binder<std::_Unforced,void (__cdecl next::sdk::events::BaseEventTemplate<std::vector<unsigned char,std::allocator<unsigned char> >,std::vector<std::pair<std::basic_string<char,std::char_traits<char>,std::allocator<char> >,unsigned int>,std::allocator<std::pair<std::basic_string<char,std::char_traits<char>,std::allocator<char> >,unsigned int> > > >::*)(std::vector<unsigned char,std::allocator<unsigned char> > const &,__int64,__int64),next::sdk::events::BaseEventBinary<std::vector<std::pair<std::basic_string<char,std::char_traits<char>,std::allocator<char> >,unsigned int>,std::allocator<std::pair<std::basic_string<char,std::char_traits<char>,std::allocator<char> >,unsigned int> > > > *,std::_Ph<1> const &,std::_Ph<2> const &,std::_Ph<3> const &>,void,std::vector<unsigned char,std::allocator<unsigned char> > const &,__int64,__int64>::_Copy(void *)
FUNC 402d0 21 0 void std::_Func_impl_no_alloc<<lambda_6fbe473982a2c21c278b2aa4e08ee88f>,void,std::vector<unsigned char,std::allocator<unsigned char> > const &,__int64,__int64>::_Delete_this(bool)
FUNC 40300 21 0 void std::_Func_impl_no_alloc<std::_Binder<std::_Unforced,void (__cdecl next::sdk::events::BaseEventTemplate<std::vector<unsigned char,std::allocator<unsigned char> >,std::vector<std::pair<std::basic_string<char,std::char_traits<char>,std::allocator<char> >,unsigned int>,std::allocator<std::pair<std::basic_string<char,std::char_traits<char>,std::allocator<char> >,unsigned int> > > >::*)(std::basic_string<char,std::char_traits<char>,std::allocator<char> > const &),next::sdk::events::BaseEventBinary<std::vector<std::pair<std::basic_string<char,std::char_traits<char>,std::allocator<char> >,unsigned int>,std::allocator<std::pair<std::basic_string<char,std::char_traits<char>,std::allocator<char> >,unsigned int> > > > *,std::_Ph<1> const &>,void,std::basic_string<char,std::char_traits<char>,std::allocator<char> > >::_Delete_this(bool)
FUNC 40330 21 0 void std::_Func_impl_no_alloc<std::_Binder<std::_Unforced,void (__cdecl next::sdk::events::BaseEventTemplate<std::vector<unsigned char,std::allocator<unsigned char> >,std::vector<std::pair<std::basic_string<char,std::char_traits<char>,std::allocator<char> >,unsigned int>,std::allocator<std::pair<std::basic_string<char,std::char_traits<char>,std::allocator<char> >,unsigned int> > > >::*)(std::vector<unsigned char,std::allocator<unsigned char> > const &,__int64,__int64),next::sdk::events::BaseEventBinary<std::vector<std::pair<std::basic_string<char,std::char_traits<char>,std::allocator<char> >,unsigned int>,std::allocator<std::pair<std::basic_string<char,std::char_traits<char>,std::allocator<char> >,unsigned int> > > > *,std::_Ph<1> const &,std::_Ph<2> const &,std::_Ph<3> const &>,void,std::vector<unsigned char,std::allocator<unsigned char> > const &,__int64,__int64>::_Delete_this(bool)
FUNC 40360 31 0 std::vector<std::pair<std::basic_string<char,std::char_traits<char>,std::allocator<char> >,unsigned int>,std::allocator<std::pair<std::basic_string<char,std::char_traits<char>,std::allocator<char> >,unsigned int> > >::_Destroy(std::pair<std::basic_string<char,std::char_traits<char>,std::allocator<char> >,unsigned int> *,std::pair<std::basic_string<char,std::char_traits<char>,std::allocator<char> >,unsigned int> *)
FUNC 403a0 52 0 void std::vector<std::function<void __cdecl(std::vector<unsigned char,std::allocator<unsigned char> > const &)>,std::allocator<std::function<void __cdecl(std::vector<unsigned char,std::allocator<unsigned char> > const &)> > >::_Destroy(class std::function<void __cdecl(std::vector<unsigned char,std::allocator<unsigned char> > const &)> *, class std::function<void __cdecl(std::vector<unsigned char,std::allocator<unsigned char> > const &)> *)
FUNC 40400 c7 0 void std::_Func_impl_no_alloc<<lambda_6fbe473982a2c21c278b2aa4e08ee88f>,void,std::vector<unsigned char,std::allocator<unsigned char> > const &,__int64,__int64>::_Do_call(const class std::vector<unsigned char,std::allocator<unsigned char> > & const, __int64 *, __int64 *)
FUNC 404d0 b 0 void std::_Func_impl_no_alloc<std::_Binder<std::_Unforced,void (__cdecl next::sdk::events::BaseEventTemplate<std::vector<unsigned char,std::allocator<unsigned char> >,std::vector<std::pair<std::basic_string<char,std::char_traits<char>,std::allocator<char> >,unsigned int>,std::allocator<std::pair<std::basic_string<char,std::char_traits<char>,std::allocator<char> >,unsigned int> > > >::*)(std::basic_string<char,std::char_traits<char>,std::allocator<char> > const &),next::sdk::events::BaseEventBinary<std::vector<std::pair<std::basic_string<char,std::char_traits<char>,std::allocator<char> >,unsigned int>,std::allocator<std::pair<std::basic_string<char,std::char_traits<char>,std::allocator<char> >,unsigned int> > > > *,std::_Ph<1> const &>,void,std::basic_string<char,std::char_traits<char>,std::allocator<char> > >::_Do_call(class std::basic_string<char,std::char_traits<char>,std::allocator<char> > *)
FUNC 404e0 11 0 void std::_Func_impl_no_alloc<std::_Binder<std::_Unforced,void (__cdecl next::sdk::events::BaseEventTemplate<std::vector<unsigned char,std::allocator<unsigned char> >,std::vector<std::pair<std::basic_string<char,std::char_traits<char>,std::allocator<char> >,unsigned int>,std::allocator<std::pair<std::basic_string<char,std::char_traits<char>,std::allocator<char> >,unsigned int> > > >::*)(std::vector<unsigned char,std::allocator<unsigned char> > const &,__int64,__int64),next::sdk::events::BaseEventBinary<std::vector<std::pair<std::basic_string<char,std::char_traits<char>,std::allocator<char> >,unsigned int>,std::allocator<std::pair<std::basic_string<char,std::char_traits<char>,std::allocator<char> >,unsigned int> > > > *,std::_Ph<1> const &,std::_Ph<2> const &,std::_Ph<3> const &>,void,std::vector<unsigned char,std::allocator<unsigned char> > const &,__int64,__int64>::_Do_call(const class std::vector<unsigned char,std::allocator<unsigned char> > & const, __int64 *, __int64 *)
FUNC 40500 5 0 const void * std::_Func_impl_no_alloc<<lambda_6fbe473982a2c21c278b2aa4e08ee88f>,void,std::vector<unsigned char,std::allocator<unsigned char> > const &,__int64,__int64>::_Get()
FUNC 40510 5 0 const void * std::_Func_impl_no_alloc<std::_Binder<std::_Unforced,void (__cdecl next::sdk::events::BaseEventTemplate<std::vector<unsigned char,std::allocator<unsigned char> >,std::vector<std::pair<std::basic_string<char,std::char_traits<char>,std::allocator<char> >,unsigned int>,std::allocator<std::pair<std::basic_string<char,std::char_traits<char>,std::allocator<char> >,unsigned int> > > >::*)(std::basic_string<char,std::char_traits<char>,std::allocator<char> > const &),next::sdk::events::BaseEventBinary<std::vector<std::pair<std::basic_string<char,std::char_traits<char>,std::allocator<char> >,unsigned int>,std::allocator<std::pair<std::basic_string<char,std::char_traits<char>,std::allocator<char> >,unsigned int> > > > *,std::_Ph<1> const &>,void,std::basic_string<char,std::char_traits<char>,std::allocator<char> > >::_Get()
FUNC 40520 5 0 const void * std::_Func_impl_no_alloc<std::_Binder<std::_Unforced,void (__cdecl next::sdk::events::BaseEventTemplate<std::vector<unsigned char,std::allocator<unsigned char> >,std::vector<std::pair<std::basic_string<char,std::char_traits<char>,std::allocator<char> >,unsigned int>,std::allocator<std::pair<std::basic_string<char,std::char_traits<char>,std::allocator<char> >,unsigned int> > > >::*)(std::vector<unsigned char,std::allocator<unsigned char> > const &,__int64,__int64),next::sdk::events::BaseEventBinary<std::vector<std::pair<std::basic_string<char,std::char_traits<char>,std::allocator<char> >,unsigned int>,std::allocator<std::pair<std::basic_string<char,std::char_traits<char>,std::allocator<char> >,unsigned int> > > > *,std::_Ph<1> const &,std::_Ph<2> const &,std::_Ph<3> const &>,void,std::vector<unsigned char,std::allocator<unsigned char> > const &,__int64,__int64>::_Get()
FUNC 40530 16 0 class std::_Func_base<void,std::vector<unsigned char,std::allocator<unsigned char> > const &,__int64,__int64> * std::_Func_impl_no_alloc<<lambda_6fbe473982a2c21c278b2aa4e08ee88f>,void,std::vector<unsigned char,std::allocator<unsigned char> > const &,__int64,__int64>::_Move(void *)
FUNC 40550 25 0 class std::_Func_base<void,std::basic_string<char,std::char_traits<char>,std::allocator<char> > > * std::_Func_impl_no_alloc<std::_Binder<std::_Unforced,void (__cdecl next::sdk::events::BaseEventTemplate<std::vector<unsigned char,std::allocator<unsigned char> >,std::vector<std::pair<std::basic_string<char,std::char_traits<char>,std::allocator<char> >,unsigned int>,std::allocator<std::pair<std::basic_string<char,std::char_traits<char>,std::allocator<char> >,unsigned int> > > >::*)(std::basic_string<char,std::char_traits<char>,std::allocator<char> > const &),next::sdk::events::BaseEventBinary<std::vector<std::pair<std::basic_string<char,std::char_traits<char>,std::allocator<char> >,unsigned int>,std::allocator<std::pair<std::basic_string<char,std::char_traits<char>,std::allocator<char> >,unsigned int> > > > *,std::_Ph<1> const &>,void,std::basic_string<char,std::char_traits<char>,std::allocator<char> > >::_Move(void *)
FUNC 40580 33 0 class std::_Func_base<void,std::vector<unsigned char,std::allocator<unsigned char> > const &,__int64,__int64> * std::_Func_impl_no_alloc<std::_Binder<std::_Unforced,void (__cdecl next::sdk::events::BaseEventTemplate<std::vector<unsigned char,std::allocator<unsigned char> >,std::vector<std::pair<std::basic_string<char,std::char_traits<char>,std::allocator<char> >,unsigned int>,std::allocator<std::pair<std::basic_string<char,std::char_traits<char>,std::allocator<char> >,unsigned int> > > >::*)(std::vector<unsigned char,std::allocator<unsigned char> > const &,__int64,__int64),next::sdk::events::BaseEventBinary<std::vector<std::pair<std::basic_string<char,std::char_traits<char>,std::allocator<char> >,unsigned int>,std::allocator<std::pair<std::basic_string<char,std::char_traits<char>,std::allocator<char> >,unsigned int> > > > *,std::_Ph<1> const &,std::_Ph<2> const &,std::_Ph<3> const &>,void,std::vector<unsigned char,std::allocator<unsigned char> > const &,__int64,__int64>::_Move(void *)
FUNC 405c0 8 0 const class type_info & const std::_Func_impl_no_alloc<<lambda_6fbe473982a2c21c278b2aa4e08ee88f>,void,std::vector<unsigned char,std::allocator<unsigned char> > const &,__int64,__int64>::_Target_type()
FUNC 405d0 8 0 const class type_info & const std::_Func_impl_no_alloc<std::_Binder<std::_Unforced,void (__cdecl next::sdk::events::BaseEventTemplate<std::vector<unsigned char,std::allocator<unsigned char> >,std::vector<std::pair<std::basic_string<char,std::char_traits<char>,std::allocator<char> >,unsigned int>,std::allocator<std::pair<std::basic_string<char,std::char_traits<char>,std::allocator<char> >,unsigned int> > > >::*)(std::basic_string<char,std::char_traits<char>,std::allocator<char> > const &),next::sdk::events::BaseEventBinary<std::vector<std::pair<std::basic_string<char,std::char_traits<char>,std::allocator<char> >,unsigned int>,std::allocator<std::pair<std::basic_string<char,std::char_traits<char>,std::allocator<char> >,unsigned int> > > > *,std::_Ph<1> const &>,void,std::basic_string<char,std::char_traits<char>,std::allocator<char> > >::_Target_type()
FUNC 405e0 8 0 const class type_info & const std::_Func_impl_no_alloc<std::_Binder<std::_Unforced,void (__cdecl next::sdk::events::BaseEventTemplate<std::vector<unsigned char,std::allocator<unsigned char> >,std::vector<std::pair<std::basic_string<char,std::char_traits<char>,std::allocator<char> >,unsigned int>,std::allocator<std::pair<std::basic_string<char,std::char_traits<char>,std::allocator<char> >,unsigned int> > > >::*)(std::vector<unsigned char,std::allocator<unsigned char> > const &,__int64,__int64),next::sdk::events::BaseEventBinary<std::vector<std::pair<std::basic_string<char,std::char_traits<char>,std::allocator<char> >,unsigned int>,std::allocator<std::pair<std::basic_string<char,std::char_traits<char>,std::allocator<char> >,unsigned int> > > > *,std::_Ph<1> const &,std::_Ph<2> const &,std::_Ph<3> const &>,void,std::vector<unsigned char,std::allocator<unsigned char> > const &,__int64,__int64>::_Target_type()
FUNC 405f0 b2 0 std::vector<std::pair<std::basic_string<char,std::char_traits<char>,std::allocator<char> >,unsigned int>,std::allocator<std::pair<std::basic_string<char,std::char_traits<char>,std::allocator<char> >,unsigned int> > >::_Tidy()
FUNC 406b0 b0 0 class std::function<void __cdecl(std::vector<unsigned char,std::allocator<unsigned char> > const &)> * std::vector<std::function<void __cdecl(std::vector<unsigned char,std::allocator<unsigned char> > const &)>,std::allocator<std::function<void __cdecl(std::vector<unsigned char,std::allocator<unsigned char> > const &)> > >::_Umove(class std::function<void __cdecl(std::vector<unsigned char,std::allocator<unsigned char> > const &)> *, class std::function<void __cdecl(std::vector<unsigned char,std::allocator<unsigned char> > const &)> *, class std::function<void __cdecl(std::vector<unsigned char,std::allocator<unsigned char> > const &)> *)
FUNC 40760 11 0 std::vector<std::pair<std::basic_string<char,std::char_traits<char>,std::allocator<char> >,unsigned int>,std::allocator<std::pair<std::basic_string<char,std::char_traits<char>,std::allocator<char> >,unsigned int> > >::_Xlength()
FUNC 40780 11 0 void std::vector<std::function<void __cdecl(std::vector<unsigned char,std::allocator<unsigned char> > const &)>,std::allocator<std::function<void __cdecl(std::vector<unsigned char,std::allocator<unsigned char> > const &)> > >::_Xlength()
FUNC 407a0 6c 0 next::sdk::events::BaseEventTemplate<std::vector<unsigned char,std::allocator<unsigned char> >,std::vector<std::pair<std::basic_string<char,std::char_traits<char>,std::allocator<char> >,unsigned int>,std::allocator<std::pair<std::basic_string<char,std::char_traits<char>,std::allocator<char> >,unsigned int> > > >::addEventHook(std::function<void > const &)
FUNC 40810 fe 0 next::sdk::events::BaseEventTemplate<std::vector<unsigned char,std::allocator<unsigned char> >,std::vector<std::pair<std::basic_string<char,std::char_traits<char>,std::allocator<char> >,unsigned int>,std::allocator<std::pair<std::basic_string<char,std::char_traits<char>,std::allocator<char> >,unsigned int> > > >::addListenerAddedHook(std::function<void > const &)
FUNC 40910 b3 0 next::sdk::events::BaseEventBinary<std::vector<std::pair<std::basic_string<char,std::char_traits<char>,std::allocator<char> >,unsigned int>,std::allocator<std::pair<std::basic_string<char,std::char_traits<char>,std::allocator<char> >,unsigned int> > > >::addOnEventRequestedHook(std::function<void >)
FUNC 409d0 6c 0 next::sdk::events::BaseEventTemplate<std::vector<unsigned char,std::allocator<unsigned char> >,std::vector<std::pair<std::basic_string<char,std::char_traits<char>,std::allocator<char> >,unsigned int>,std::allocator<std::pair<std::basic_string<char,std::char_traits<char>,std::allocator<char> >,unsigned int> > > >::addSyncEventHook(std::function<void > const &)
FUNC 40a40 75 0 std::allocator<std::pair<std::basic_string<char,std::char_traits<char>,std::allocator<char> >,unsigned int> >::allocate(unsigned __int64)
FUNC 40ac0 43 0 std::allocator<std::pair<std::basic_string<char,std::char_traits<char>,std::allocator<char> >,unsigned int> >::deallocate(std::pair<std::basic_string<char,std::char_traits<char>,std::allocator<char> >,unsigned int> * const,unsigned __int64)
FUNC 40b10 42 0 void std::allocator<std::function<void __cdecl(std::vector<unsigned char,std::allocator<unsigned char> > const &)> >::deallocate(class std::function<void __cdecl(std::vector<unsigned char,std::allocator<unsigned char> > const &)> *, const unsigned __int64)
FUNC 40b60 458 0 next::sdk::events::CycleInformationEvent::deserializeEventPayload(std::vector<unsigned char,std::allocator<unsigned char> > const &)
FUNC 40fc0 21 0 next::sdk::events::BaseEventTemplate<std::vector<unsigned char,std::allocator<unsigned char> >,std::vector<std::pair<std::basic_string<char,std::char_traits<char>,std::allocator<char> >,unsigned int>,std::allocator<std::pair<std::basic_string<char,std::char_traits<char>,std::allocator<char> >,unsigned int> > > >::getClassName()
FUNC 40ff0 1c 0 next::sdk::events::BaseEventTemplate<std::vector<unsigned char,std::allocator<unsigned char> >,std::vector<std::pair<std::basic_string<char,std::char_traits<char>,std::allocator<char> >,unsigned int>,std::allocator<std::pair<std::basic_string<char,std::char_traits<char>,std::allocator<char> >,unsigned int> > > >::getCurrentNanoSeconds()
FUNC 41010 8a 0 next::sdk::events::BaseEventTemplate<std::vector<unsigned char,std::allocator<unsigned char> >,std::vector<std::pair<std::basic_string<char,std::char_traits<char>,std::allocator<char> >,unsigned int>,std::allocator<std::pair<std::basic_string<char,std::char_traits<char>,std::allocator<char> >,unsigned int> > > >::getEventData()
FUNC 410a0 21 0 next::sdk::events::BaseEventTemplate<std::vector<unsigned char,std::allocator<unsigned char> >,std::vector<std::pair<std::basic_string<char,std::char_traits<char>,std::allocator<char> >,unsigned int>,std::allocator<std::pair<std::basic_string<char,std::char_traits<char>,std::allocator<char> >,unsigned int> > > >::getEventName()
FUNC 410d0 e 0 next::sdk::events::BaseEventTemplate<std::vector<unsigned char,std::allocator<unsigned char> >,std::vector<std::pair<std::basic_string<char,std::char_traits<char>,std::allocator<char> >,unsigned int>,std::allocator<std::pair<std::basic_string<char,std::char_traits<char>,std::allocator<char> >,unsigned int> > > >::getHeader()
FUNC 410e0 6a 0 next::sdk::events::BaseEventBinary<std::vector<std::pair<std::basic_string<char,std::char_traits<char>,std::allocator<char> >,unsigned int>,std::allocator<std::pair<std::basic_string<char,std::char_traits<char>,std::allocator<char> >,unsigned int> > > >::getNumberOfListeners()
FUNC 41150 234 0 next::sdk::events::BaseEventBinary<std::vector<std::pair<std::basic_string<char,std::char_traits<char>,std::allocator<char> >,unsigned int>,std::allocator<std::pair<std::basic_string<char,std::char_traits<char>,std::allocator<char> >,unsigned int> > > >::initialize()
FUNC 41390 1ba 0 next::sdk::events::BaseEventTemplate<std::vector<unsigned char,std::allocator<unsigned char> >,std::vector<std::pair<std::basic_string<char,std::char_traits<char>,std::allocator<char> >,unsigned int>,std::allocator<std::pair<std::basic_string<char,std::char_traits<char>,std::allocator<char> >,unsigned int> > > >::onEvent(std::vector<unsigned char,std::allocator<unsigned char> > const &,__int64,__int64)
FUNC 41550 f3 0 next::sdk::events::BaseEventTemplate<std::vector<unsigned char,std::allocator<unsigned char> >,std::vector<std::pair<std::basic_string<char,std::char_traits<char>,std::allocator<char> >,unsigned int>,std::allocator<std::pair<std::basic_string<char,std::char_traits<char>,std::allocator<char> >,unsigned int> > > >::onEventListenerAdded(std::basic_string<char,std::char_traits<char>,std::allocator<char> > const &)
FUNC 41650 f1 0 next::sdk::events::BaseEventTemplate<std::vector<unsigned char,std::allocator<unsigned char> >,std::vector<std::pair<std::basic_string<char,std::char_traits<char>,std::allocator<char> >,unsigned int>,std::allocator<std::pair<std::basic_string<char,std::char_traits<char>,std::allocator<char> >,unsigned int> > > >::onSyncEvent(std::vector<unsigned char,std::allocator<unsigned char> > const &,std::basic_string<char,std::char_traits<char>,std::allocator<char> > &)
FUNC 41750 be 0 next::sdk::events::BaseEventBinary<std::vector<std::pair<std::basic_string<char,std::char_traits<char>,std::allocator<char> >,unsigned int>,std::allocator<std::pair<std::basic_string<char,std::char_traits<char>,std::allocator<char> >,unsigned int> > > >::publish(std::vector<std::pair<std::basic_string<char,std::char_traits<char>,std::allocator<char> >,unsigned int>,std::allocator<std::pair<std::basic_string<char,std::char_traits<char>,std::allocator<char> >,unsigned int> > > const &)
FUNC 41810 29c 0 next::sdk::events::BaseEventBinary<std::vector<std::pair<std::basic_string<char,std::char_traits<char>,std::allocator<char> >,unsigned int>,std::allocator<std::pair<std::basic_string<char,std::char_traits<char>,std::allocator<char> >,unsigned int> > > >::publish(std::vector<std::pair<std::basic_string<char,std::char_traits<char>,std::allocator<char> >,unsigned int>,std::allocator<std::pair<std::basic_string<char,std::char_traits<char>,std::allocator<char> >,unsigned int> > > const &,std::list<std::basic_string<char,std::char_traits<char>,std::allocator<char> >,std::allocator<std::basic_string<char,std::char_traits<char>,std::allocator<char> > > > &)
FUNC 41ab0 33a 0 next::sdk::events::BaseEventBinary<std::vector<std::pair<std::basic_string<char,std::char_traits<char>,std::allocator<char> >,unsigned int>,std::allocator<std::pair<std::basic_string<char,std::char_traits<char>,std::allocator<char> >,unsigned int> > > >::requestEventUpdate()
FUNC 41df0 1e9 0 next::sdk::events::CycleInformationEvent::serializeEventPayload(std::vector<std::pair<std::basic_string<char,std::char_traits<char>,std::allocator<char> >,unsigned int>,std::allocator<std::pair<std::basic_string<char,std::char_traits<char>,std::allocator<char> >,unsigned int> > > const &)
FUNC 41fe0 1bd 0 next::sdk::events::BaseEventBinary<std::vector<std::pair<std::basic_string<char,std::char_traits<char>,std::allocator<char> >,unsigned int>,std::allocator<std::pair<std::basic_string<char,std::char_traits<char>,std::allocator<char> >,unsigned int> > > >::setUpEventRequestListener()
FUNC 421a0 21f 0 next::sdk::events::BaseEventBinary<std::vector<std::pair<std::basic_string<char,std::char_traits<char>,std::allocator<char> >,unsigned int>,std::allocator<std::pair<std::basic_string<char,std::char_traits<char>,std::allocator<char> >,unsigned int> > > >::subscribe()
FUNC 423c0 137 0 next::sdk::logger::warn<>(std::basic_string<char,std::char_traits<char>,std::allocator<char> > const &,char const *)
FUNC 42500 1ca 0 next::sdk::events::BaseEventBinary<next::sdk::events::LifecycleStateMessage>::BaseEventBinary<next::sdk::events::LifecycleStateMessage>(std::basic_string<char,std::char_traits<char>,std::allocator<char> >)
FUNC 426d0 15a 0 next::sdk::events::BaseEventTemplate<std::vector<unsigned char,std::allocator<unsigned char> >,next::sdk::events::LifecycleStateMessage>::BaseEventTemplate<std::vector<unsigned char,std::allocator<unsigned char> >,next::sdk::events::LifecycleStateMessage>(std::basic_string<char,std::char_traits<char>,std::allocator<char> >,std::basic_string<char,std::char_traits<char>,std::allocator<char> >)
FUNC 42830 7f 0 next::sdk::events::LifecycleState::LifecycleState(std::basic_string<char,std::char_traits<char>,std::allocator<char> >)
FUNC 428b0 287 0 next::sdk::events::BaseEventBinary<next::sdk::events::LifecycleStateMessage>::~BaseEventBinary<next::sdk::events::LifecycleStateMessage>()
FUNC 42b40 df 0 next::sdk::events::BaseEventTemplate<std::vector<unsigned char,std::allocator<unsigned char> >,next::sdk::events::LifecycleStateMessage>::~BaseEventTemplate<std::vector<unsigned char,std::allocator<unsigned char> >,next::sdk::events::LifecycleStateMessage>()
FUNC 42c20 5 0 next::sdk::events::LifecycleState::~LifecycleState()
FUNC 42c30 20 0 next::sdk::events::LifecycleStateMessage::~LifecycleStateMessage()
PUBLIC 42c50 0 [thunk]:next::sdk::events::BaseEventTemplate<std::vector<unsigned char,std::allocator<unsigned char> >,next::sdk::events::LifecycleStateMessage>::`vcall'{88,{flat}}' }'
PUBLIC 42c58 0 [thunk]:next::sdk::events::BaseEventTemplate<std::vector<unsigned char,std::allocator<unsigned char> >,next::sdk::events::LifecycleStateMessage>::`vcall'{96,{flat}}' }'
FUNC 42c60 96 0 next::sdk::events::BaseEventBinary<next::sdk::events::LifecycleStateMessage>::`vector deleting destructor'(unsigned int)
FUNC 42d00 96 0 next::sdk::events::BaseEventTemplate<std::vector<unsigned char,std::allocator<unsigned char> >,next::sdk::events::LifecycleStateMessage>::`vector deleting destructor'(unsigned int)
FUNC 42da0 96 0 next::sdk::events::LifecycleState::`vector deleting destructor'(unsigned int)
FUNC 42e40 34 0 next::sdk::events::BaseEventBinary<next::sdk::events::LifecycleStateMessage>::`scalar deleting destructor'(unsigned int)
FUNC 42e80 34 0 next::sdk::events::BaseEventTemplate<std::vector<unsigned char,std::allocator<unsigned char> >,next::sdk::events::LifecycleStateMessage>::`scalar deleting destructor'(unsigned int)
FUNC 42ec0 34 0 next::sdk::events::LifecycleState::`scalar deleting destructor'(unsigned int)
FUNC 42f00 16 0 class std::_Func_base<void,std::vector<unsigned char,std::allocator<unsigned char> > const &,__int64,__int64> * std::_Func_impl_no_alloc<<lambda_4834bee9d8a4378c7fc9d4ad8dee0dcc>,void,std::vector<unsigned char,std::allocator<unsigned char> > const &,__int64,__int64>::_Copy(void *)
FUNC 42f20 25 0 class std::_Func_base<void,std::basic_string<char,std::char_traits<char>,std::allocator<char> > > * std::_Func_impl_no_alloc<std::_Binder<std::_Unforced,void (__cdecl next::sdk::events::BaseEventTemplate<std::vector<unsigned char,std::allocator<unsigned char> >,next::sdk::events::LifecycleStateMessage>::*)(std::basic_string<char,std::char_traits<char>,std::allocator<char> > const &),next::sdk::events::BaseEventBinary<next::sdk::events::LifecycleStateMessage> *,std::_Ph<1> const &>,void,std::basic_string<char,std::char_traits<char>,std::allocator<char> > >::_Copy(void *)
FUNC 42f50 33 0 class std::_Func_base<void,std::vector<unsigned char,std::allocator<unsigned char> > const &,__int64,__int64> * std::_Func_impl_no_alloc<std::_Binder<std::_Unforced,void (__cdecl next::sdk::events::BaseEventTemplate<std::vector<unsigned char,std::allocator<unsigned char> >,next::sdk::events::LifecycleStateMessage>::*)(std::vector<unsigned char,std::allocator<unsigned char> > const &,__int64,__int64),next::sdk::events::BaseEventBinary<next::sdk::events::LifecycleStateMessage> *,std::_Ph<1> const &,std::_Ph<2> const &,std::_Ph<3> const &>,void,std::vector<unsigned char,std::allocator<unsigned char> > const &,__int64,__int64>::_Copy(void *)
FUNC 42f90 21 0 void std::_Func_impl_no_alloc<<lambda_4834bee9d8a4378c7fc9d4ad8dee0dcc>,void,std::vector<unsigned char,std::allocator<unsigned char> > const &,__int64,__int64>::_Delete_this(bool)
FUNC 42fc0 21 0 void std::_Func_impl_no_alloc<std::_Binder<std::_Unforced,void (__cdecl next::sdk::events::BaseEventTemplate<std::vector<unsigned char,std::allocator<unsigned char> >,next::sdk::events::LifecycleStateMessage>::*)(std::basic_string<char,std::char_traits<char>,std::allocator<char> > const &),next::sdk::events::BaseEventBinary<next::sdk::events::LifecycleStateMessage> *,std::_Ph<1> const &>,void,std::basic_string<char,std::char_traits<char>,std::allocator<char> > >::_Delete_this(bool)
FUNC 42ff0 21 0 void std::_Func_impl_no_alloc<std::_Binder<std::_Unforced,void (__cdecl next::sdk::events::BaseEventTemplate<std::vector<unsigned char,std::allocator<unsigned char> >,next::sdk::events::LifecycleStateMessage>::*)(std::vector<unsigned char,std::allocator<unsigned char> > const &,__int64,__int64),next::sdk::events::BaseEventBinary<next::sdk::events::LifecycleStateMessage> *,std::_Ph<1> const &,std::_Ph<2> const &,std::_Ph<3> const &>,void,std::vector<unsigned char,std::allocator<unsigned char> > const &,__int64,__int64>::_Delete_this(bool)
FUNC 43020 c7 0 void std::_Func_impl_no_alloc<<lambda_4834bee9d8a4378c7fc9d4ad8dee0dcc>,void,std::vector<unsigned char,std::allocator<unsigned char> > const &,__int64,__int64>::_Do_call(const class std::vector<unsigned char,std::allocator<unsigned char> > & const, __int64 *, __int64 *)
FUNC 430f0 b 0 void std::_Func_impl_no_alloc<std::_Binder<std::_Unforced,void (__cdecl next::sdk::events::BaseEventTemplate<std::vector<unsigned char,std::allocator<unsigned char> >,next::sdk::events::LifecycleStateMessage>::*)(std::basic_string<char,std::char_traits<char>,std::allocator<char> > const &),next::sdk::events::BaseEventBinary<next::sdk::events::LifecycleStateMessage> *,std::_Ph<1> const &>,void,std::basic_string<char,std::char_traits<char>,std::allocator<char> > >::_Do_call(class std::basic_string<char,std::char_traits<char>,std::allocator<char> > *)
FUNC 43100 11 0 void std::_Func_impl_no_alloc<std::_Binder<std::_Unforced,void (__cdecl next::sdk::events::BaseEventTemplate<std::vector<unsigned char,std::allocator<unsigned char> >,next::sdk::events::LifecycleStateMessage>::*)(std::vector<unsigned char,std::allocator<unsigned char> > const &,__int64,__int64),next::sdk::events::BaseEventBinary<next::sdk::events::LifecycleStateMessage> *,std::_Ph<1> const &,std::_Ph<2> const &,std::_Ph<3> const &>,void,std::vector<unsigned char,std::allocator<unsigned char> > const &,__int64,__int64>::_Do_call(const class std::vector<unsigned char,std::allocator<unsigned char> > & const, __int64 *, __int64 *)
FUNC 43120 5 0 const void * std::_Func_impl_no_alloc<<lambda_4834bee9d8a4378c7fc9d4ad8dee0dcc>,void,std::vector<unsigned char,std::allocator<unsigned char> > const &,__int64,__int64>::_Get()
FUNC 43130 5 0 const void * std::_Func_impl_no_alloc<std::_Binder<std::_Unforced,void (__cdecl next::sdk::events::BaseEventTemplate<std::vector<unsigned char,std::allocator<unsigned char> >,next::sdk::events::LifecycleStateMessage>::*)(std::basic_string<char,std::char_traits<char>,std::allocator<char> > const &),next::sdk::events::BaseEventBinary<next::sdk::events::LifecycleStateMessage> *,std::_Ph<1> const &>,void,std::basic_string<char,std::char_traits<char>,std::allocator<char> > >::_Get()
FUNC 43140 5 0 const void * std::_Func_impl_no_alloc<std::_Binder<std::_Unforced,void (__cdecl next::sdk::events::BaseEventTemplate<std::vector<unsigned char,std::allocator<unsigned char> >,next::sdk::events::LifecycleStateMessage>::*)(std::vector<unsigned char,std::allocator<unsigned char> > const &,__int64,__int64),next::sdk::events::BaseEventBinary<next::sdk::events::LifecycleStateMessage> *,std::_Ph<1> const &,std::_Ph<2> const &,std::_Ph<3> const &>,void,std::vector<unsigned char,std::allocator<unsigned char> > const &,__int64,__int64>::_Get()
FUNC 43150 16 0 class std::_Func_base<void,std::vector<unsigned char,std::allocator<unsigned char> > const &,__int64,__int64> * std::_Func_impl_no_alloc<<lambda_4834bee9d8a4378c7fc9d4ad8dee0dcc>,void,std::vector<unsigned char,std::allocator<unsigned char> > const &,__int64,__int64>::_Move(void *)
FUNC 43170 25 0 class std::_Func_base<void,std::basic_string<char,std::char_traits<char>,std::allocator<char> > > * std::_Func_impl_no_alloc<std::_Binder<std::_Unforced,void (__cdecl next::sdk::events::BaseEventTemplate<std::vector<unsigned char,std::allocator<unsigned char> >,next::sdk::events::LifecycleStateMessage>::*)(std::basic_string<char,std::char_traits<char>,std::allocator<char> > const &),next::sdk::events::BaseEventBinary<next::sdk::events::LifecycleStateMessage> *,std::_Ph<1> const &>,void,std::basic_string<char,std::char_traits<char>,std::allocator<char> > >::_Move(void *)
FUNC 431a0 33 0 class std::_Func_base<void,std::vector<unsigned char,std::allocator<unsigned char> > const &,__int64,__int64> * std::_Func_impl_no_alloc<std::_Binder<std::_Unforced,void (__cdecl next::sdk::events::BaseEventTemplate<std::vector<unsigned char,std::allocator<unsigned char> >,next::sdk::events::LifecycleStateMessage>::*)(std::vector<unsigned char,std::allocator<unsigned char> > const &,__int64,__int64),next::sdk::events::BaseEventBinary<next::sdk::events::LifecycleStateMessage> *,std::_Ph<1> const &,std::_Ph<2> const &,std::_Ph<3> const &>,void,std::vector<unsigned char,std::allocator<unsigned char> > const &,__int64,__int64>::_Move(void *)
FUNC 431e0 8 0 const class type_info & const std::_Func_impl_no_alloc<<lambda_4834bee9d8a4378c7fc9d4ad8dee0dcc>,void,std::vector<unsigned char,std::allocator<unsigned char> > const &,__int64,__int64>::_Target_type()
FUNC 431f0 8 0 const class type_info & const std::_Func_impl_no_alloc<std::_Binder<std::_Unforced,void (__cdecl next::sdk::events::BaseEventTemplate<std::vector<unsigned char,std::allocator<unsigned char> >,next::sdk::events::LifecycleStateMessage>::*)(std::basic_string<char,std::char_traits<char>,std::allocator<char> > const &),next::sdk::events::BaseEventBinary<next::sdk::events::LifecycleStateMessage> *,std::_Ph<1> const &>,void,std::basic_string<char,std::char_traits<char>,std::allocator<char> > >::_Target_type()
FUNC 43200 8 0 const class type_info & const std::_Func_impl_no_alloc<std::_Binder<std::_Unforced,void (__cdecl next::sdk::events::BaseEventTemplate<std::vector<unsigned char,std::allocator<unsigned char> >,next::sdk::events::LifecycleStateMessage>::*)(std::vector<unsigned char,std::allocator<unsigned char> > const &,__int64,__int64),next::sdk::events::BaseEventBinary<next::sdk::events::LifecycleStateMessage> *,std::_Ph<1> const &,std::_Ph<2> const &,std::_Ph<3> const &>,void,std::vector<unsigned char,std::allocator<unsigned char> > const &,__int64,__int64>::_Target_type()
FUNC 43210 6c 0 next::sdk::events::BaseEventTemplate<std::vector<unsigned char,std::allocator<unsigned char> >,next::sdk::events::LifecycleStateMessage>::addEventHook(std::function<void > const &)
FUNC 43280 fe 0 next::sdk::events::BaseEventTemplate<std::vector<unsigned char,std::allocator<unsigned char> >,next::sdk::events::LifecycleStateMessage>::addListenerAddedHook(std::function<void > const &)
FUNC 43380 b3 0 next::sdk::events::BaseEventBinary<next::sdk::events::LifecycleStateMessage>::addOnEventRequestedHook(std::function<void >)
FUNC 43440 6c 0 next::sdk::events::BaseEventTemplate<std::vector<unsigned char,std::allocator<unsigned char> >,next::sdk::events::LifecycleStateMessage>::addSyncEventHook(std::function<void > const &)
FUNC 434b0 61d 0 next::sdk::events::LifecycleState::deserializeEventPayload(std::vector<unsigned char,std::allocator<unsigned char> > const &)
FUNC 43ad0 21 0 next::sdk::events::BaseEventTemplate<std::vector<unsigned char,std::allocator<unsigned char> >,next::sdk::events::LifecycleStateMessage>::getClassName()
FUNC 43b00 1c 0 next::sdk::events::BaseEventTemplate<std::vector<unsigned char,std::allocator<unsigned char> >,next::sdk::events::LifecycleStateMessage>::getCurrentNanoSeconds()
FUNC 43b20 a7 0 next::sdk::events::BaseEventTemplate<std::vector<unsigned char,std::allocator<unsigned char> >,next::sdk::events::LifecycleStateMessage>::getEventData()
FUNC 43bd0 21 0 next::sdk::events::BaseEventTemplate<std::vector<unsigned char,std::allocator<unsigned char> >,next::sdk::events::LifecycleStateMessage>::getEventName()
FUNC 43c00 e 0 next::sdk::events::BaseEventTemplate<std::vector<unsigned char,std::allocator<unsigned char> >,next::sdk::events::LifecycleStateMessage>::getHeader()
FUNC 43c10 6a 0 next::sdk::events::BaseEventBinary<next::sdk::events::LifecycleStateMessage>::getNumberOfListeners()
FUNC 43c80 234 0 next::sdk::events::BaseEventBinary<next::sdk::events::LifecycleStateMessage>::initialize()
FUNC 43ec0 1ff 0 next::sdk::events::BaseEventTemplate<std::vector<unsigned char,std::allocator<unsigned char> >,next::sdk::events::LifecycleStateMessage>::onEvent(std::vector<unsigned char,std::allocator<unsigned char> > const &,__int64,__int64)
FUNC 440c0 f3 0 next::sdk::events::BaseEventTemplate<std::vector<unsigned char,std::allocator<unsigned char> >,next::sdk::events::LifecycleStateMessage>::onEventListenerAdded(std::basic_string<char,std::char_traits<char>,std::allocator<char> > const &)
FUNC 441c0 f1 0 next::sdk::events::BaseEventTemplate<std::vector<unsigned char,std::allocator<unsigned char> >,next::sdk::events::LifecycleStateMessage>::onSyncEvent(std::vector<unsigned char,std::allocator<unsigned char> > const &,std::basic_string<char,std::char_traits<char>,std::allocator<char> > &)
FUNC 442c0 be 0 next::sdk::events::BaseEventBinary<next::sdk::events::LifecycleStateMessage>::publish(next::sdk::events::LifecycleStateMessage const &)
FUNC 44380 2db 0 next::sdk::events::BaseEventBinary<next::sdk::events::LifecycleStateMessage>::publish(next::sdk::events::LifecycleStateMessage const &,std::list<std::basic_string<char,std::char_traits<char>,std::allocator<char> >,std::allocator<std::basic_string<char,std::char_traits<char>,std::allocator<char> > > > &)
FUNC 44660 ef 0 next::sdk::events::LifecycleState::publishState(std::basic_string<char,std::char_traits<char>,std::allocator<char> > const &,std::basic_string<char,std::char_traits<char>,std::allocator<char> > const &)
FUNC 44750 33a 0 next::sdk::events::BaseEventBinary<next::sdk::events::LifecycleStateMessage>::requestEventUpdate()
FUNC 44a90 28f 0 next::sdk::events::LifecycleState::serializeEventPayload(next::sdk::events::LifecycleStateMessage const &)
FUNC 44d20 1bd 0 next::sdk::events::BaseEventBinary<next::sdk::events::LifecycleStateMessage>::setUpEventRequestListener()
FUNC 44ee0 21f 0 next::sdk::events::BaseEventBinary<next::sdk::events::LifecycleStateMessage>::subscribe()
FUNC 45100 1ca 0 next::sdk::events::BaseEventBinary<next::sdk::events::LifecycleTriggerMessage>::BaseEventBinary<next::sdk::events::LifecycleTriggerMessage>(std::basic_string<char,std::char_traits<char>,std::allocator<char> >)
FUNC 452d0 15a 0 next::sdk::events::BaseEventTemplate<std::vector<unsigned char,std::allocator<unsigned char> >,next::sdk::events::LifecycleTriggerMessage>::BaseEventTemplate<std::vector<unsigned char,std::allocator<unsigned char> >,next::sdk::events::LifecycleTriggerMessage>(std::basic_string<char,std::char_traits<char>,std::allocator<char> >,std::basic_string<char,std::char_traits<char>,std::allocator<char> >)
FUNC 45430 7f 0 next::sdk::events::LifecycleTrigger::LifecycleTrigger(std::basic_string<char,std::char_traits<char>,std::allocator<char> >)
FUNC 454b0 287 0 next::sdk::events::BaseEventBinary<next::sdk::events::LifecycleTriggerMessage>::~BaseEventBinary<next::sdk::events::LifecycleTriggerMessage>()
FUNC 45740 df 0 next::sdk::events::BaseEventTemplate<std::vector<unsigned char,std::allocator<unsigned char> >,next::sdk::events::LifecycleTriggerMessage>::~BaseEventTemplate<std::vector<unsigned char,std::allocator<unsigned char> >,next::sdk::events::LifecycleTriggerMessage>()
FUNC 45820 5 0 next::sdk::events::LifecycleTrigger::~LifecycleTrigger()
FUNC 45830 20 0 next::sdk::events::LifecycleTriggerMessage::~LifecycleTriggerMessage()
PUBLIC 45850 0 [thunk]:next::sdk::events::BaseEventTemplate<std::vector<unsigned char,std::allocator<unsigned char> >,next::sdk::events::LifecycleTriggerMessage>::`vcall'{88,{flat}}' }'
PUBLIC 45858 0 [thunk]:next::sdk::events::BaseEventTemplate<std::vector<unsigned char,std::allocator<unsigned char> >,next::sdk::events::LifecycleTriggerMessage>::`vcall'{96,{flat}}' }'
FUNC 45860 96 0 next::sdk::events::BaseEventBinary<next::sdk::events::LifecycleTriggerMessage>::`vector deleting destructor'(unsigned int)
FUNC 45900 96 0 next::sdk::events::BaseEventTemplate<std::vector<unsigned char,std::allocator<unsigned char> >,next::sdk::events::LifecycleTriggerMessage>::`vector deleting destructor'(unsigned int)
FUNC 459a0 96 0 next::sdk::events::LifecycleTrigger::`vector deleting destructor'(unsigned int)
FUNC 45a40 34 0 next::sdk::events::BaseEventBinary<next::sdk::events::LifecycleTriggerMessage>::`scalar deleting destructor'(unsigned int)
FUNC 45a80 34 0 next::sdk::events::BaseEventTemplate<std::vector<unsigned char,std::allocator<unsigned char> >,next::sdk::events::LifecycleTriggerMessage>::`scalar deleting destructor'(unsigned int)
FUNC 45ac0 34 0 next::sdk::events::LifecycleTrigger::`scalar deleting destructor'(unsigned int)
FUNC 45b00 16 0 class std::_Func_base<void,std::vector<unsigned char,std::allocator<unsigned char> > const &,__int64,__int64> * std::_Func_impl_no_alloc<<lambda_deb906df73942448a9f8a873bac59cb2>,void,std::vector<unsigned char,std::allocator<unsigned char> > const &,__int64,__int64>::_Copy(void *)
FUNC 45b20 25 0 class std::_Func_base<void,std::basic_string<char,std::char_traits<char>,std::allocator<char> > > * std::_Func_impl_no_alloc<std::_Binder<std::_Unforced,void (__cdecl next::sdk::events::BaseEventTemplate<std::vector<unsigned char,std::allocator<unsigned char> >,next::sdk::events::LifecycleTriggerMessage>::*)(std::basic_string<char,std::char_traits<char>,std::allocator<char> > const &),next::sdk::events::BaseEventBinary<next::sdk::events::LifecycleTriggerMessage> *,std::_Ph<1> const &>,void,std::basic_string<char,std::char_traits<char>,std::allocator<char> > >::_Copy(void *)
FUNC 45b50 33 0 class std::_Func_base<void,std::vector<unsigned char,std::allocator<unsigned char> > const &,__int64,__int64> * std::_Func_impl_no_alloc<std::_Binder<std::_Unforced,void (__cdecl next::sdk::events::BaseEventTemplate<std::vector<unsigned char,std::allocator<unsigned char> >,next::sdk::events::LifecycleTriggerMessage>::*)(std::vector<unsigned char,std::allocator<unsigned char> > const &,__int64,__int64),next::sdk::events::BaseEventBinary<next::sdk::events::LifecycleTriggerMessage> *,std::_Ph<1> const &,std::_Ph<2> const &,std::_Ph<3> const &>,void,std::vector<unsigned char,std::allocator<unsigned char> > const &,__int64,__int64>::_Copy(void *)
FUNC 45b90 21 0 void std::_Func_impl_no_alloc<<lambda_deb906df73942448a9f8a873bac59cb2>,void,std::vector<unsigned char,std::allocator<unsigned char> > const &,__int64,__int64>::_Delete_this(bool)
FUNC 45bc0 21 0 void std::_Func_impl_no_alloc<std::_Binder<std::_Unforced,void (__cdecl next::sdk::events::BaseEventTemplate<std::vector<unsigned char,std::allocator<unsigned char> >,next::sdk::events::LifecycleTriggerMessage>::*)(std::basic_string<char,std::char_traits<char>,std::allocator<char> > const &),next::sdk::events::BaseEventBinary<next::sdk::events::LifecycleTriggerMessage> *,std::_Ph<1> const &>,void,std::basic_string<char,std::char_traits<char>,std::allocator<char> > >::_Delete_this(bool)
FUNC 45bf0 21 0 void std::_Func_impl_no_alloc<std::_Binder<std::_Unforced,void (__cdecl next::sdk::events::BaseEventTemplate<std::vector<unsigned char,std::allocator<unsigned char> >,next::sdk::events::LifecycleTriggerMessage>::*)(std::vector<unsigned char,std::allocator<unsigned char> > const &,__int64,__int64),next::sdk::events::BaseEventBinary<next::sdk::events::LifecycleTriggerMessage> *,std::_Ph<1> const &,std::_Ph<2> const &,std::_Ph<3> const &>,void,std::vector<unsigned char,std::allocator<unsigned char> > const &,__int64,__int64>::_Delete_this(bool)
FUNC 45c20 c7 0 void std::_Func_impl_no_alloc<<lambda_deb906df73942448a9f8a873bac59cb2>,void,std::vector<unsigned char,std::allocator<unsigned char> > const &,__int64,__int64>::_Do_call(const class std::vector<unsigned char,std::allocator<unsigned char> > & const, __int64 *, __int64 *)
FUNC 45cf0 b 0 void std::_Func_impl_no_alloc<std::_Binder<std::_Unforced,void (__cdecl next::sdk::events::BaseEventTemplate<std::vector<unsigned char,std::allocator<unsigned char> >,next::sdk::events::LifecycleTriggerMessage>::*)(std::basic_string<char,std::char_traits<char>,std::allocator<char> > const &),next::sdk::events::BaseEventBinary<next::sdk::events::LifecycleTriggerMessage> *,std::_Ph<1> const &>,void,std::basic_string<char,std::char_traits<char>,std::allocator<char> > >::_Do_call(class std::basic_string<char,std::char_traits<char>,std::allocator<char> > *)
FUNC 45d00 11 0 void std::_Func_impl_no_alloc<std::_Binder<std::_Unforced,void (__cdecl next::sdk::events::BaseEventTemplate<std::vector<unsigned char,std::allocator<unsigned char> >,next::sdk::events::LifecycleTriggerMessage>::*)(std::vector<unsigned char,std::allocator<unsigned char> > const &,__int64,__int64),next::sdk::events::BaseEventBinary<next::sdk::events::LifecycleTriggerMessage> *,std::_Ph<1> const &,std::_Ph<2> const &,std::_Ph<3> const &>,void,std::vector<unsigned char,std::allocator<unsigned char> > const &,__int64,__int64>::_Do_call(const class std::vector<unsigned char,std::allocator<unsigned char> > & const, __int64 *, __int64 *)
FUNC 45d20 5 0 const void * std::_Func_impl_no_alloc<<lambda_deb906df73942448a9f8a873bac59cb2>,void,std::vector<unsigned char,std::allocator<unsigned char> > const &,__int64,__int64>::_Get()
FUNC 45d30 5 0 const void * std::_Func_impl_no_alloc<std::_Binder<std::_Unforced,void (__cdecl next::sdk::events::BaseEventTemplate<std::vector<unsigned char,std::allocator<unsigned char> >,next::sdk::events::LifecycleTriggerMessage>::*)(std::basic_string<char,std::char_traits<char>,std::allocator<char> > const &),next::sdk::events::BaseEventBinary<next::sdk::events::LifecycleTriggerMessage> *,std::_Ph<1> const &>,void,std::basic_string<char,std::char_traits<char>,std::allocator<char> > >::_Get()
FUNC 45d40 5 0 const void * std::_Func_impl_no_alloc<std::_Binder<std::_Unforced,void (__cdecl next::sdk::events::BaseEventTemplate<std::vector<unsigned char,std::allocator<unsigned char> >,next::sdk::events::LifecycleTriggerMessage>::*)(std::vector<unsigned char,std::allocator<unsigned char> > const &,__int64,__int64),next::sdk::events::BaseEventBinary<next::sdk::events::LifecycleTriggerMessage> *,std::_Ph<1> const &,std::_Ph<2> const &,std::_Ph<3> const &>,void,std::vector<unsigned char,std::allocator<unsigned char> > const &,__int64,__int64>::_Get()
FUNC 45d50 16 0 class std::_Func_base<void,std::vector<unsigned char,std::allocator<unsigned char> > const &,__int64,__int64> * std::_Func_impl_no_alloc<<lambda_deb906df73942448a9f8a873bac59cb2>,void,std::vector<unsigned char,std::allocator<unsigned char> > const &,__int64,__int64>::_Move(void *)
FUNC 45d70 25 0 class std::_Func_base<void,std::basic_string<char,std::char_traits<char>,std::allocator<char> > > * std::_Func_impl_no_alloc<std::_Binder<std::_Unforced,void (__cdecl next::sdk::events::BaseEventTemplate<std::vector<unsigned char,std::allocator<unsigned char> >,next::sdk::events::LifecycleTriggerMessage>::*)(std::basic_string<char,std::char_traits<char>,std::allocator<char> > const &),next::sdk::events::BaseEventBinary<next::sdk::events::LifecycleTriggerMessage> *,std::_Ph<1> const &>,void,std::basic_string<char,std::char_traits<char>,std::allocator<char> > >::_Move(void *)
FUNC 45da0 33 0 class std::_Func_base<void,std::vector<unsigned char,std::allocator<unsigned char> > const &,__int64,__int64> * std::_Func_impl_no_alloc<std::_Binder<std::_Unforced,void (__cdecl next::sdk::events::BaseEventTemplate<std::vector<unsigned char,std::allocator<unsigned char> >,next::sdk::events::LifecycleTriggerMessage>::*)(std::vector<unsigned char,std::allocator<unsigned char> > const &,__int64,__int64),next::sdk::events::BaseEventBinary<next::sdk::events::LifecycleTriggerMessage> *,std::_Ph<1> const &,std::_Ph<2> const &,std::_Ph<3> const &>,void,std::vector<unsigned char,std::allocator<unsigned char> > const &,__int64,__int64>::_Move(void *)
FUNC 45de0 8 0 const class type_info & const std::_Func_impl_no_alloc<<lambda_deb906df73942448a9f8a873bac59cb2>,void,std::vector<unsigned char,std::allocator<unsigned char> > const &,__int64,__int64>::_Target_type()
FUNC 45df0 8 0 const class type_info & const std::_Func_impl_no_alloc<std::_Binder<std::_Unforced,void (__cdecl next::sdk::events::BaseEventTemplate<std::vector<unsigned char,std::allocator<unsigned char> >,next::sdk::events::LifecycleTriggerMessage>::*)(std::basic_string<char,std::char_traits<char>,std::allocator<char> > const &),next::sdk::events::BaseEventBinary<next::sdk::events::LifecycleTriggerMessage> *,std::_Ph<1> const &>,void,std::basic_string<char,std::char_traits<char>,std::allocator<char> > >::_Target_type()
FUNC 45e00 8 0 const class type_info & const std::_Func_impl_no_alloc<std::_Binder<std::_Unforced,void (__cdecl next::sdk::events::BaseEventTemplate<std::vector<unsigned char,std::allocator<unsigned char> >,next::sdk::events::LifecycleTriggerMessage>::*)(std::vector<unsigned char,std::allocator<unsigned char> > const &,__int64,__int64),next::sdk::events::BaseEventBinary<next::sdk::events::LifecycleTriggerMessage> *,std::_Ph<1> const &,std::_Ph<2> const &,std::_Ph<3> const &>,void,std::vector<unsigned char,std::allocator<unsigned char> > const &,__int64,__int64>::_Target_type()
FUNC 45e10 6c 0 next::sdk::events::BaseEventTemplate<std::vector<unsigned char,std::allocator<unsigned char> >,next::sdk::events::LifecycleTriggerMessage>::addEventHook(std::function<void > const &)
FUNC 45e80 fe 0 next::sdk::events::BaseEventTemplate<std::vector<unsigned char,std::allocator<unsigned char> >,next::sdk::events::LifecycleTriggerMessage>::addListenerAddedHook(std::function<void > const &)
FUNC 45f80 b3 0 next::sdk::events::BaseEventBinary<next::sdk::events::LifecycleTriggerMessage>::addOnEventRequestedHook(std::function<void >)
FUNC 46040 6c 0 next::sdk::events::BaseEventTemplate<std::vector<unsigned char,std::allocator<unsigned char> >,next::sdk::events::LifecycleTriggerMessage>::addSyncEventHook(std::function<void > const &)
FUNC 460b0 61d 0 next::sdk::events::LifecycleTrigger::deserializeEventPayload(std::vector<unsigned char,std::allocator<unsigned char> > const &)
FUNC 466d0 21 0 next::sdk::events::BaseEventTemplate<std::vector<unsigned char,std::allocator<unsigned char> >,next::sdk::events::LifecycleTriggerMessage>::getClassName()
FUNC 46700 1c 0 next::sdk::events::BaseEventTemplate<std::vector<unsigned char,std::allocator<unsigned char> >,next::sdk::events::LifecycleTriggerMessage>::getCurrentNanoSeconds()
FUNC 46720 a7 0 next::sdk::events::BaseEventTemplate<std::vector<unsigned char,std::allocator<unsigned char> >,next::sdk::events::LifecycleTriggerMessage>::getEventData()
FUNC 467d0 21 0 next::sdk::events::BaseEventTemplate<std::vector<unsigned char,std::allocator<unsigned char> >,next::sdk::events::LifecycleTriggerMessage>::getEventName()
FUNC 46800 e 0 next::sdk::events::BaseEventTemplate<std::vector<unsigned char,std::allocator<unsigned char> >,next::sdk::events::LifecycleTriggerMessage>::getHeader()
FUNC 46810 6a 0 next::sdk::events::BaseEventBinary<next::sdk::events::LifecycleTriggerMessage>::getNumberOfListeners()
FUNC 46880 234 0 next::sdk::events::BaseEventBinary<next::sdk::events::LifecycleTriggerMessage>::initialize()
FUNC 46ac0 1ff 0 next::sdk::events::BaseEventTemplate<std::vector<unsigned char,std::allocator<unsigned char> >,next::sdk::events::LifecycleTriggerMessage>::onEvent(std::vector<unsigned char,std::allocator<unsigned char> > const &,__int64,__int64)
FUNC 46cc0 f3 0 next::sdk::events::BaseEventTemplate<std::vector<unsigned char,std::allocator<unsigned char> >,next::sdk::events::LifecycleTriggerMessage>::onEventListenerAdded(std::basic_string<char,std::char_traits<char>,std::allocator<char> > const &)
FUNC 46dc0 f1 0 next::sdk::events::BaseEventTemplate<std::vector<unsigned char,std::allocator<unsigned char> >,next::sdk::events::LifecycleTriggerMessage>::onSyncEvent(std::vector<unsigned char,std::allocator<unsigned char> > const &,std::basic_string<char,std::char_traits<char>,std::allocator<char> > &)
FUNC 46ec0 be 0 next::sdk::events::BaseEventBinary<next::sdk::events::LifecycleTriggerMessage>::publish(next::sdk::events::LifecycleTriggerMessage const &)
FUNC 46f80 2db 0 next::sdk::events::BaseEventBinary<next::sdk::events::LifecycleTriggerMessage>::publish(next::sdk::events::LifecycleTriggerMessage const &,std::list<std::basic_string<char,std::char_traits<char>,std::allocator<char> >,std::allocator<std::basic_string<char,std::char_traits<char>,std::allocator<char> > > > &)
FUNC 47260 ef 0 next::sdk::events::LifecycleTrigger::publishTrigger(std::basic_string<char,std::char_traits<char>,std::allocator<char> > const &,std::basic_string<char,std::char_traits<char>,std::allocator<char> > const &)
FUNC 47350 33a 0 next::sdk::events::BaseEventBinary<next::sdk::events::LifecycleTriggerMessage>::requestEventUpdate()
FUNC 47690 28f 0 next::sdk::events::LifecycleTrigger::serializeEventPayload(next::sdk::events::LifecycleTriggerMessage const &)
FUNC 47920 1bd 0 next::sdk::events::BaseEventBinary<next::sdk::events::LifecycleTriggerMessage>::setUpEventRequestListener()
FUNC 47ae0 21f 0 next::sdk::events::BaseEventBinary<next::sdk::events::LifecycleTriggerMessage>::subscribe()
FUNC 47d00 1d0 0 void std::vector<next::sdk::events::LogEventData,std::allocator<next::sdk::events::LogEventData> >::_Assign_range<next::sdk::events::LogEventData *>(struct next::sdk::events::LogEventData *, struct next::sdk::events::LogEventData *, struct std::forward_iterator_tag)
FUNC 47ed0 112 0 struct next::sdk::events::LogEventData * std::_Copy_unchecked<next::sdk::events::LogEventData *,next::sdk::events::LogEventData *>(struct next::sdk::events::LogEventData *, struct next::sdk::events::LogEventData *, struct next::sdk::events::LogEventData *)
FUNC 47ff0 217 0 struct next::sdk::events::LogEventData * std::vector<next::sdk::events::LogEventData,std::allocator<next::sdk::events::LogEventData> >::_Emplace_reallocate<next::sdk::events::LogEventData const &>(struct next::sdk::events::LogEventData *, const struct next::sdk::events::LogEventData & const)
FUNC 48210 70 0 struct next::sdk::events::LogEventData * std::vector<next::sdk::events::LogEventData,std::allocator<next::sdk::events::LogEventData> >::_Ucopy<next::sdk::events::LogEventData *>(struct next::sdk::events::LogEventData *, struct next::sdk::events::LogEventData *, struct next::sdk::events::LogEventData *)
FUNC 48280 f1 0 struct next::sdk::events::LogEventData * std::_Uninitialized_move<next::sdk::events::LogEventData *,next::sdk::events::LogEventData *,std::allocator<next::sdk::events::LogEventData> >(struct next::sdk::events::LogEventData *, struct next::sdk::events::LogEventData *, struct next::sdk::events::LogEventData *, class std::allocator<next::sdk::events::LogEventData> & const)
FUNC 48380 1a6 0 next::sdk::events::BaseEventBinary<std::vector<next::sdk::events::LogEventData,std::allocator<next::sdk::events::LogEventData> > >::BaseEventBinary<std::vector<next::sdk::events::LogEventData,std::allocator<next::sdk::events::LogEventData> > >(std::basic_string<char,std::char_traits<char>,std::allocator<char> >)
FUNC 48530 137 0 next::sdk::events::BaseEventTemplate<std::vector<unsigned char,std::allocator<unsigned char> >,std::vector<next::sdk::events::LogEventData,std::allocator<next::sdk::events::LogEventData> > >::BaseEventTemplate<std::vector<unsigned char,std::allocator<unsigned char> >,std::vector<next::sdk::events::LogEventData,std::allocator<next::sdk::events::LogEventData> > >(std::basic_string<char,std::char_traits<char>,std::allocator<char> >,std::basic_string<char,std::char_traits<char>,std::allocator<char> >)
FUNC 48670 b0 0 std::vector<next::sdk::events::LogEventData,std::allocator<next::sdk::events::LogEventData> >::vector<next::sdk::events::LogEventData,std::allocator<next::sdk::events::LogEventData> >(std::vector<next::sdk::events::LogEventData,std::allocator<next::sdk::events::LogEventData> > const &)
FUNC 48720 31 0 next::sdk::events::LogEvent::LogEvent(std::basic_string<char,std::char_traits<char>,std::allocator<char> > const &)
FUNC 48760 6a 0 next::sdk::events::LogEventData::LogEventData(next::sdk::events::LogEventData const &)
FUNC 487d0 279 0 next::sdk::events::BaseEventBinary<std::vector<next::sdk::events::LogEventData,std::allocator<next::sdk::events::LogEventData> > >::~BaseEventBinary<std::vector<next::sdk::events::LogEventData,std::allocator<next::sdk::events::LogEventData> > >()
FUNC 48a50 d2 0 next::sdk::events::BaseEventTemplate<std::vector<unsigned char,std::allocator<unsigned char> >,std::vector<next::sdk::events::LogEventData,std::allocator<next::sdk::events::LogEventData> > >::~BaseEventTemplate<std::vector<unsigned char,std::allocator<unsigned char> >,std::vector<next::sdk::events::LogEventData,std::allocator<next::sdk::events::LogEventData> > >()
FUNC 48b30 45 0 void std::_Uninitialized_backout_al<next::sdk::events::LogEventData *,std::allocator<next::sdk::events::LogEventData> >::~_Uninitialized_backout_al<next::sdk::events::LogEventData *,std::allocator<next::sdk::events::LogEventData> >()
FUNC 48b80 18 0 std::vector<next::sdk::events::LogEventData,std::allocator<next::sdk::events::LogEventData> >::~vector<next::sdk::events::LogEventData,std::allocator<next::sdk::events::LogEventData> >()
FUNC 48ba0 5 0 next::sdk::events::LogEvent::~LogEvent()
FUNC 48bb0 29 0 next::sdk::events::LogEventData::~LogEventData()
PUBLIC 48bdc 0 [thunk]:next::sdk::events::BaseEventTemplate<std::vector<unsigned char,std::allocator<unsigned char> >,std::vector<next::sdk::events::LogEventData,std::allocator<next::sdk::events::LogEventData> > >::`vcall'{88,{flat}}' }'
PUBLIC 48be4 0 [thunk]:next::sdk::events::BaseEventTemplate<std::vector<unsigned char,std::allocator<unsigned char> >,std::vector<next::sdk::events::LogEventData,std::allocator<next::sdk::events::LogEventData> > >::`vcall'{96,{flat}}' }'
FUNC 48bf0 96 0 next::sdk::events::BaseEventBinary<std::vector<next::sdk::events::LogEventData,std::allocator<next::sdk::events::LogEventData> > >::`vector deleting destructor'(unsigned int)
FUNC 48c90 96 0 next::sdk::events::BaseEventTemplate<std::vector<unsigned char,std::allocator<unsigned char> >,std::vector<next::sdk::events::LogEventData,std::allocator<next::sdk::events::LogEventData> > >::`vector deleting destructor'(unsigned int)
FUNC 48d30 96 0 next::sdk::events::LogEvent::`vector deleting destructor'(unsigned int)
FUNC 48dd0 c7 0 next::sdk::events::LogEvent::`default constructor closure'()
FUNC 48ea0 34 0 next::sdk::events::BaseEventBinary<std::vector<next::sdk::events::LogEventData,std::allocator<next::sdk::events::LogEventData> > >::`scalar deleting destructor'(unsigned int)
FUNC 48ee0 34 0 next::sdk::events::BaseEventTemplate<std::vector<unsigned char,std::allocator<unsigned char> >,std::vector<next::sdk::events::LogEventData,std::allocator<next::sdk::events::LogEventData> > >::`scalar deleting destructor'(unsigned int)
FUNC 48f20 34 0 next::sdk::events::LogEvent::`scalar deleting destructor'(unsigned int)
FUNC 48f60 5b 0 std::vector<next::sdk::events::LogEventData,std::allocator<next::sdk::events::LogEventData> >::_Buy(unsigned __int64)
FUNC 48fc0 16 0 class std::_Func_base<void,std::vector<unsigned char,std::allocator<unsigned char> > const &,__int64,__int64> * std::_Func_impl_no_alloc<<lambda_b9c2ef125573f65ecaa45832931e5ab4>,void,std::vector<unsigned char,std::allocator<unsigned char> > const &,__int64,__int64>::_Copy(void *)
FUNC 48fe0 25 0 class std::_Func_base<void,std::basic_string<char,std::char_traits<char>,std::allocator<char> > > * std::_Func_impl_no_alloc<std::_Binder<std::_Unforced,void (__cdecl next::sdk::events::BaseEventTemplate<std::vector<unsigned char,std::allocator<unsigned char> >,std::vector<next::sdk::events::LogEventData,std::allocator<next::sdk::events::LogEventData> > >::*)(std::basic_string<char,std::char_traits<char>,std::allocator<char> > const &),next::sdk::events::BaseEventBinary<std::vector<next::sdk::events::LogEventData,std::allocator<next::sdk::events::LogEventData> > > *,std::_Ph<1> const &>,void,std::basic_string<char,std::char_traits<char>,std::allocator<char> > >::_Copy(void *)
FUNC 49010 33 0 class std::_Func_base<void,std::vector<unsigned char,std::allocator<unsigned char> > const &,__int64,__int64> * std::_Func_impl_no_alloc<std::_Binder<std::_Unforced,void (__cdecl next::sdk::events::BaseEventTemplate<std::vector<unsigned char,std::allocator<unsigned char> >,std::vector<next::sdk::events::LogEventData,std::allocator<next::sdk::events::LogEventData> > >::*)(std::vector<unsigned char,std::allocator<unsigned char> > const &,__int64,__int64),next::sdk::events::BaseEventBinary<std::vector<next::sdk::events::LogEventData,std::allocator<next::sdk::events::LogEventData> > > *,std::_Ph<1> const &,std::_Ph<2> const &,std::_Ph<3> const &>,void,std::vector<unsigned char,std::allocator<unsigned char> > const &,__int64,__int64>::_Copy(void *)
FUNC 49050 21 0 void std::_Func_impl_no_alloc<<lambda_b9c2ef125573f65ecaa45832931e5ab4>,void,std::vector<unsigned char,std::allocator<unsigned char> > const &,__int64,__int64>::_Delete_this(bool)
FUNC 49080 21 0 void std::_Func_impl_no_alloc<std::_Binder<std::_Unforced,void (__cdecl next::sdk::events::BaseEventTemplate<std::vector<unsigned char,std::allocator<unsigned char> >,std::vector<next::sdk::events::LogEventData,std::allocator<next::sdk::events::LogEventData> > >::*)(std::basic_string<char,std::char_traits<char>,std::allocator<char> > const &),next::sdk::events::BaseEventBinary<std::vector<next::sdk::events::LogEventData,std::allocator<next::sdk::events::LogEventData> > > *,std::_Ph<1> const &>,void,std::basic_string<char,std::char_traits<char>,std::allocator<char> > >::_Delete_this(bool)
FUNC 490b0 21 0 void std::_Func_impl_no_alloc<std::_Binder<std::_Unforced,void (__cdecl next::sdk::events::BaseEventTemplate<std::vector<unsigned char,std::allocator<unsigned char> >,std::vector<next::sdk::events::LogEventData,std::allocator<next::sdk::events::LogEventData> > >::*)(std::vector<unsigned char,std::allocator<unsigned char> > const &,__int64,__int64),next::sdk::events::BaseEventBinary<std::vector<next::sdk::events::LogEventData,std::allocator<next::sdk::events::LogEventData> > > *,std::_Ph<1> const &,std::_Ph<2> const &,std::_Ph<3> const &>,void,std::vector<unsigned char,std::allocator<unsigned char> > const &,__int64,__int64>::_Delete_this(bool)
FUNC 490e0 48 0 std::vector<next::sdk::events::LogEventData,std::allocator<next::sdk::events::LogEventData> >::_Destroy(next::sdk::events::LogEventData *,next::sdk::events::LogEventData *)
FUNC 49130 c7 0 void std::_Func_impl_no_alloc<<lambda_b9c2ef125573f65ecaa45832931e5ab4>,void,std::vector<unsigned char,std::allocator<unsigned char> > const &,__int64,__int64>::_Do_call(const class std::vector<unsigned char,std::allocator<unsigned char> > & const, __int64 *, __int64 *)
FUNC 49200 b 0 void std::_Func_impl_no_alloc<std::_Binder<std::_Unforced,void (__cdecl next::sdk::events::BaseEventTemplate<std::vector<unsigned char,std::allocator<unsigned char> >,std::vector<next::sdk::events::LogEventData,std::allocator<next::sdk::events::LogEventData> > >::*)(std::basic_string<char,std::char_traits<char>,std::allocator<char> > const &),next::sdk::events::BaseEventBinary<std::vector<next::sdk::events::LogEventData,std::allocator<next::sdk::events::LogEventData> > > *,std::_Ph<1> const &>,void,std::basic_string<char,std::char_traits<char>,std::allocator<char> > >::_Do_call(class std::basic_string<char,std::char_traits<char>,std::allocator<char> > *)
FUNC 49210 11 0 void std::_Func_impl_no_alloc<std::_Binder<std::_Unforced,void (__cdecl next::sdk::events::BaseEventTemplate<std::vector<unsigned char,std::allocator<unsigned char> >,std::vector<next::sdk::events::LogEventData,std::allocator<next::sdk::events::LogEventData> > >::*)(std::vector<unsigned char,std::allocator<unsigned char> > const &,__int64,__int64),next::sdk::events::BaseEventBinary<std::vector<next::sdk::events::LogEventData,std::allocator<next::sdk::events::LogEventData> > > *,std::_Ph<1> const &,std::_Ph<2> const &,std::_Ph<3> const &>,void,std::vector<unsigned char,std::allocator<unsigned char> > const &,__int64,__int64>::_Do_call(const class std::vector<unsigned char,std::allocator<unsigned char> > & const, __int64 *, __int64 *)
FUNC 49230 5 0 const void * std::_Func_impl_no_alloc<<lambda_b9c2ef125573f65ecaa45832931e5ab4>,void,std::vector<unsigned char,std::allocator<unsigned char> > const &,__int64,__int64>::_Get()
FUNC 49240 5 0 const void * std::_Func_impl_no_alloc<std::_Binder<std::_Unforced,void (__cdecl next::sdk::events::BaseEventTemplate<std::vector<unsigned char,std::allocator<unsigned char> >,std::vector<next::sdk::events::LogEventData,std::allocator<next::sdk::events::LogEventData> > >::*)(std::basic_string<char,std::char_traits<char>,std::allocator<char> > const &),next::sdk::events::BaseEventBinary<std::vector<next::sdk::events::LogEventData,std::allocator<next::sdk::events::LogEventData> > > *,std::_Ph<1> const &>,void,std::basic_string<char,std::char_traits<char>,std::allocator<char> > >::_Get()
FUNC 49250 5 0 const void * std::_Func_impl_no_alloc<std::_Binder<std::_Unforced,void (__cdecl next::sdk::events::BaseEventTemplate<std::vector<unsigned char,std::allocator<unsigned char> >,std::vector<next::sdk::events::LogEventData,std::allocator<next::sdk::events::LogEventData> > >::*)(std::vector<unsigned char,std::allocator<unsigned char> > const &,__int64,__int64),next::sdk::events::BaseEventBinary<std::vector<next::sdk::events::LogEventData,std::allocator<next::sdk::events::LogEventData> > > *,std::_Ph<1> const &,std::_Ph<2> const &,std::_Ph<3> const &>,void,std::vector<unsigned char,std::allocator<unsigned char> > const &,__int64,__int64>::_Get()
FUNC 49260 16 0 class std::_Func_base<void,std::vector<unsigned char,std::allocator<unsigned char> > const &,__int64,__int64> * std::_Func_impl_no_alloc<<lambda_b9c2ef125573f65ecaa45832931e5ab4>,void,std::vector<unsigned char,std::allocator<unsigned char> > const &,__int64,__int64>::_Move(void *)
FUNC 49280 25 0 class std::_Func_base<void,std::basic_string<char,std::char_traits<char>,std::allocator<char> > > * std::_Func_impl_no_alloc<std::_Binder<std::_Unforced,void (__cdecl next::sdk::events::BaseEventTemplate<std::vector<unsigned char,std::allocator<unsigned char> >,std::vector<next::sdk::events::LogEventData,std::allocator<next::sdk::events::LogEventData> > >::*)(std::basic_string<char,std::char_traits<char>,std::allocator<char> > const &),next::sdk::events::BaseEventBinary<std::vector<next::sdk::events::LogEventData,std::allocator<next::sdk::events::LogEventData> > > *,std::_Ph<1> const &>,void,std::basic_string<char,std::char_traits<char>,std::allocator<char> > >::_Move(void *)
FUNC 492b0 33 0 class std::_Func_base<void,std::vector<unsigned char,std::allocator<unsigned char> > const &,__int64,__int64> * std::_Func_impl_no_alloc<std::_Binder<std::_Unforced,void (__cdecl next::sdk::events::BaseEventTemplate<std::vector<unsigned char,std::allocator<unsigned char> >,std::vector<next::sdk::events::LogEventData,std::allocator<next::sdk::events::LogEventData> > >::*)(std::vector<unsigned char,std::allocator<unsigned char> > const &,__int64,__int64),next::sdk::events::BaseEventBinary<std::vector<next::sdk::events::LogEventData,std::allocator<next::sdk::events::LogEventData> > > *,std::_Ph<1> const &,std::_Ph<2> const &,std::_Ph<3> const &>,void,std::vector<unsigned char,std::allocator<unsigned char> > const &,__int64,__int64>::_Move(void *)
FUNC 492f0 8 0 const class type_info & const std::_Func_impl_no_alloc<<lambda_b9c2ef125573f65ecaa45832931e5ab4>,void,std::vector<unsigned char,std::allocator<unsigned char> > const &,__int64,__int64>::_Target_type()
FUNC 49300 8 0 const class type_info & const std::_Func_impl_no_alloc<std::_Binder<std::_Unforced,void (__cdecl next::sdk::events::BaseEventTemplate<std::vector<unsigned char,std::allocator<unsigned char> >,std::vector<next::sdk::events::LogEventData,std::allocator<next::sdk::events::LogEventData> > >::*)(std::basic_string<char,std::char_traits<char>,std::allocator<char> > const &),next::sdk::events::BaseEventBinary<std::vector<next::sdk::events::LogEventData,std::allocator<next::sdk::events::LogEventData> > > *,std::_Ph<1> const &>,void,std::basic_string<char,std::char_traits<char>,std::allocator<char> > >::_Target_type()
FUNC 49310 8 0 const class type_info & const std::_Func_impl_no_alloc<std::_Binder<std::_Unforced,void (__cdecl next::sdk::events::BaseEventTemplate<std::vector<unsigned char,std::allocator<unsigned char> >,std::vector<next::sdk::events::LogEventData,std::allocator<next::sdk::events::LogEventData> > >::*)(std::vector<unsigned char,std::allocator<unsigned char> > const &,__int64,__int64),next::sdk::events::BaseEventBinary<std::vector<next::sdk::events::LogEventData,std::allocator<next::sdk::events::LogEventData> > > *,std::_Ph<1> const &,std::_Ph<2> const &,std::_Ph<3> const &>,void,std::vector<unsigned char,std::allocator<unsigned char> > const &,__int64,__int64>::_Target_type()
FUNC 49320 c4 0 std::vector<next::sdk::events::LogEventData,std::allocator<next::sdk::events::LogEventData> >::_Tidy()
FUNC 493f0 11 0 std::vector<next::sdk::events::LogEventData,std::allocator<next::sdk::events::LogEventData> >::_Xlength()
FUNC 49410 6c 0 next::sdk::events::BaseEventTemplate<std::vector<unsigned char,std::allocator<unsigned char> >,std::vector<next::sdk::events::LogEventData,std::allocator<next::sdk::events::LogEventData> > >::addEventHook(std::function<void > const &)
FUNC 49480 fe 0 next::sdk::events::BaseEventTemplate<std::vector<unsigned char,std::allocator<unsigned char> >,std::vector<next::sdk::events::LogEventData,std::allocator<next::sdk::events::LogEventData> > >::addListenerAddedHook(std::function<void > const &)
FUNC 49580 b3 0 next::sdk::events::BaseEventBinary<std::vector<next::sdk::events::LogEventData,std::allocator<next::sdk::events::LogEventData> > >::addOnEventRequestedHook(std::function<void >)
FUNC 49640 6c 0 next::sdk::events::BaseEventTemplate<std::vector<unsigned char,std::allocator<unsigned char> >,std::vector<next::sdk::events::LogEventData,std::allocator<next::sdk::events::LogEventData> > >::addSyncEventHook(std::function<void > const &)
FUNC 496b0 71 0 std::allocator<next::sdk::events::LogEventData>::allocate(unsigned __int64)
FUNC 49730 3f 0 std::allocator<next::sdk::events::LogEventData>::deallocate(next::sdk::events::LogEventData * const,unsigned __int64)
FUNC 49770 977 0 next::sdk::events::LogEvent::deserializeEventPayload(std::vector<unsigned char,std::allocator<unsigned char> > const &)
FUNC 4a0f0 21 0 next::sdk::events::BaseEventTemplate<std::vector<unsigned char,std::allocator<unsigned char> >,std::vector<next::sdk::events::LogEventData,std::allocator<next::sdk::events::LogEventData> > >::getClassName()
FUNC 4a120 1c 0 next::sdk::events::BaseEventTemplate<std::vector<unsigned char,std::allocator<unsigned char> >,std::vector<next::sdk::events::LogEventData,std::allocator<next::sdk::events::LogEventData> > >::getCurrentNanoSeconds()
FUNC 4a140 8a 0 next::sdk::events::BaseEventTemplate<std::vector<unsigned char,std::allocator<unsigned char> >,std::vector<next::sdk::events::LogEventData,std::allocator<next::sdk::events::LogEventData> > >::getEventData()
FUNC 4a1d0 21 0 next::sdk::events::BaseEventTemplate<std::vector<unsigned char,std::allocator<unsigned char> >,std::vector<next::sdk::events::LogEventData,std::allocator<next::sdk::events::LogEventData> > >::getEventName()
FUNC 4a200 e 0 next::sdk::events::BaseEventTemplate<std::vector<unsigned char,std::allocator<unsigned char> >,std::vector<next::sdk::events::LogEventData,std::allocator<next::sdk::events::LogEventData> > >::getHeader()
FUNC 4a210 6a 0 next::sdk::events::BaseEventBinary<std::vector<next::sdk::events::LogEventData,std::allocator<next::sdk::events::LogEventData> > >::getNumberOfListeners()
FUNC 4a280 234 0 next::sdk::events::BaseEventBinary<std::vector<next::sdk::events::LogEventData,std::allocator<next::sdk::events::LogEventData> > >::initialize()
FUNC 4a4c0 1ba 0 next::sdk::events::BaseEventTemplate<std::vector<unsigned char,std::allocator<unsigned char> >,std::vector<next::sdk::events::LogEventData,std::allocator<next::sdk::events::LogEventData> > >::onEvent(std::vector<unsigned char,std::allocator<unsigned char> > const &,__int64,__int64)
FUNC 4a680 f3 0 next::sdk::events::BaseEventTemplate<std::vector<unsigned char,std::allocator<unsigned char> >,std::vector<next::sdk::events::LogEventData,std::allocator<next::sdk::events::LogEventData> > >::onEventListenerAdded(std::basic_string<char,std::char_traits<char>,std::allocator<char> > const &)
FUNC 4a780 f1 0 next::sdk::events::BaseEventTemplate<std::vector<unsigned char,std::allocator<unsigned char> >,std::vector<next::sdk::events::LogEventData,std::allocator<next::sdk::events::LogEventData> > >::onSyncEvent(std::vector<unsigned char,std::allocator<unsigned char> > const &,std::basic_string<char,std::char_traits<char>,std::allocator<char> > &)
FUNC 4a880 be 0 next::sdk::events::BaseEventBinary<std::vector<next::sdk::events::LogEventData,std::allocator<next::sdk::events::LogEventData> > >::publish(std::vector<next::sdk::events::LogEventData,std::allocator<next::sdk::events::LogEventData> > const &)
FUNC 4a940 29c 0 next::sdk::events::BaseEventBinary<std::vector<next::sdk::events::LogEventData,std::allocator<next::sdk::events::LogEventData> > >::publish(std::vector<next::sdk::events::LogEventData,std::allocator<next::sdk::events::LogEventData> > const &,std::list<std::basic_string<char,std::char_traits<char>,std::allocator<char> >,std::allocator<std::basic_string<char,std::char_traits<char>,std::allocator<char> > > > &)
FUNC 4abe0 7 0 next::sdk::events::LogEvent::publishLogEvent(std::vector<next::sdk::events::LogEventData,std::allocator<next::sdk::events::LogEventData> > const &)
FUNC 4abf0 33a 0 next::sdk::events::BaseEventBinary<std::vector<next::sdk::events::LogEventData,std::allocator<next::sdk::events::LogEventData> > >::requestEventUpdate()
FUNC 4af30 521 0 next::sdk::events::LogEvent::serializeEventPayload(std::vector<next::sdk::events::LogEventData,std::allocator<next::sdk::events::LogEventData> > const &)
FUNC 4b460 1bd 0 next::sdk::events::BaseEventBinary<std::vector<next::sdk::events::LogEventData,std::allocator<next::sdk::events::LogEventData> > >::setUpEventRequestListener()
FUNC 4b620 21f 0 next::sdk::events::BaseEventBinary<std::vector<next::sdk::events::LogEventData,std::allocator<next::sdk::events::LogEventData> > >::subscribe()
FUNC 4b840 200 0 next::sdk::events::BaseEventBinary<next::sdk::events::RequestConfigFromClientInformationMessage>::BaseEventBinary<next::sdk::events::RequestConfigFromClientInformationMessage>(std::basic_string<char,std::char_traits<char>,std::allocator<char> >)
FUNC 4ba40 194 0 next::sdk::events::BaseEventTemplate<std::vector<unsigned char,std::allocator<unsigned char> >,next::sdk::events::RequestConfigFromClientInformationMessage>::BaseEventTemplate<std::vector<unsigned char,std::allocator<unsigned char> >,next::sdk::events::RequestConfigFromClientInformationMessage>(std::basic_string<char,std::char_traits<char>,std::allocator<char> >,std::basic_string<char,std::char_traits<char>,std::allocator<char> >)
FUNC 4bbe0 7f 0 next::sdk::events::RequestConfigFromClient::RequestConfigFromClient(std::basic_string<char,std::char_traits<char>,std::allocator<char> >)
FUNC 4bc60 295 0 next::sdk::events::BaseEventBinary<next::sdk::events::RequestConfigFromClientInformationMessage>::~BaseEventBinary<next::sdk::events::RequestConfigFromClientInformationMessage>()
FUNC 4bf00 ec 0 next::sdk::events::BaseEventTemplate<std::vector<unsigned char,std::allocator<unsigned char> >,next::sdk::events::RequestConfigFromClientInformationMessage>::~BaseEventTemplate<std::vector<unsigned char,std::allocator<unsigned char> >,next::sdk::events::RequestConfigFromClientInformationMessage>()
FUNC 4bff0 5 0 next::sdk::events::RequestConfigFromClient::~RequestConfigFromClient()
FUNC 4c000 28 0 next::sdk::events::RequestConfigFromClientInformationMessage::~RequestConfigFromClientInformationMessage()
PUBLIC 4c028 0 [thunk]:next::sdk::events::BaseEventTemplate<std::vector<unsigned char,std::allocator<unsigned char> >,next::sdk::events::RequestConfigFromClientInformationMessage>::`vcall'{88,{flat}}' }'
PUBLIC 4c030 0 [thunk]:next::sdk::events::BaseEventTemplate<std::vector<unsigned char,std::allocator<unsigned char> >,next::sdk::events::RequestConfigFromClientInformationMessage>::`vcall'{96,{flat}}' }'
FUNC 4c040 96 0 next::sdk::events::BaseEventBinary<next::sdk::events::RequestConfigFromClientInformationMessage>::`vector deleting destructor'(unsigned int)
FUNC 4c0e0 96 0 next::sdk::events::BaseEventTemplate<std::vector<unsigned char,std::allocator<unsigned char> >,next::sdk::events::RequestConfigFromClientInformationMessage>::`vector deleting destructor'(unsigned int)
FUNC 4c180 96 0 next::sdk::events::RequestConfigFromClient::`vector deleting destructor'(unsigned int)
FUNC 4c220 34 0 next::sdk::events::BaseEventBinary<next::sdk::events::RequestConfigFromClientInformationMessage>::`scalar deleting destructor'(unsigned int)
FUNC 4c260 34 0 next::sdk::events::BaseEventTemplate<std::vector<unsigned char,std::allocator<unsigned char> >,next::sdk::events::RequestConfigFromClientInformationMessage>::`scalar deleting destructor'(unsigned int)
FUNC 4c2a0 34 0 next::sdk::events::RequestConfigFromClient::`scalar deleting destructor'(unsigned int)
FUNC 4c2e0 16 0 class std::_Func_base<void,std::vector<unsigned char,std::allocator<unsigned char> > const &,__int64,__int64> * std::_Func_impl_no_alloc<<lambda_8aff54fb3dd9d144bef176228c474382>,void,std::vector<unsigned char,std::allocator<unsigned char> > const &,__int64,__int64>::_Copy(void *)
FUNC 4c300 25 0 class std::_Func_base<void,std::basic_string<char,std::char_traits<char>,std::allocator<char> > > * std::_Func_impl_no_alloc<std::_Binder<std::_Unforced,void (__cdecl next::sdk::events::BaseEventTemplate<std::vector<unsigned char,std::allocator<unsigned char> >,next::sdk::events::RequestConfigFromClientInformationMessage>::*)(std::basic_string<char,std::char_traits<char>,std::allocator<char> > const &),next::sdk::events::BaseEventBinary<next::sdk::events::RequestConfigFromClientInformationMessage> *,std::_Ph<1> const &>,void,std::basic_string<char,std::char_traits<char>,std::allocator<char> > >::_Copy(void *)
FUNC 4c330 33 0 class std::_Func_base<void,std::vector<unsigned char,std::allocator<unsigned char> > const &,__int64,__int64> * std::_Func_impl_no_alloc<std::_Binder<std::_Unforced,void (__cdecl next::sdk::events::BaseEventTemplate<std::vector<unsigned char,std::allocator<unsigned char> >,next::sdk::events::RequestConfigFromClientInformationMessage>::*)(std::vector<unsigned char,std::allocator<unsigned char> > const &,__int64,__int64),next::sdk::events::BaseEventBinary<next::sdk::events::RequestConfigFromClientInformationMessage> *,std::_Ph<1> const &,std::_Ph<2> const &,std::_Ph<3> const &>,void,std::vector<unsigned char,std::allocator<unsigned char> > const &,__int64,__int64>::_Copy(void *)
FUNC 4c370 21 0 void std::_Func_impl_no_alloc<<lambda_8aff54fb3dd9d144bef176228c474382>,void,std::vector<unsigned char,std::allocator<unsigned char> > const &,__int64,__int64>::_Delete_this(bool)
FUNC 4c3a0 21 0 void std::_Func_impl_no_alloc<std::_Binder<std::_Unforced,void (__cdecl next::sdk::events::BaseEventTemplate<std::vector<unsigned char,std::allocator<unsigned char> >,next::sdk::events::RequestConfigFromClientInformationMessage>::*)(std::basic_string<char,std::char_traits<char>,std::allocator<char> > const &),next::sdk::events::BaseEventBinary<next::sdk::events::RequestConfigFromClientInformationMessage> *,std::_Ph<1> const &>,void,std::basic_string<char,std::char_traits<char>,std::allocator<char> > >::_Delete_this(bool)
FUNC 4c3d0 21 0 void std::_Func_impl_no_alloc<std::_Binder<std::_Unforced,void (__cdecl next::sdk::events::BaseEventTemplate<std::vector<unsigned char,std::allocator<unsigned char> >,next::sdk::events::RequestConfigFromClientInformationMessage>::*)(std::vector<unsigned char,std::allocator<unsigned char> > const &,__int64,__int64),next::sdk::events::BaseEventBinary<next::sdk::events::RequestConfigFromClientInformationMessage> *,std::_Ph<1> const &,std::_Ph<2> const &,std::_Ph<3> const &>,void,std::vector<unsigned char,std::allocator<unsigned char> > const &,__int64,__int64>::_Delete_this(bool)
FUNC 4c400 c7 0 void std::_Func_impl_no_alloc<<lambda_8aff54fb3dd9d144bef176228c474382>,void,std::vector<unsigned char,std::allocator<unsigned char> > const &,__int64,__int64>::_Do_call(const class std::vector<unsigned char,std::allocator<unsigned char> > & const, __int64 *, __int64 *)
FUNC 4c4d0 b 0 void std::_Func_impl_no_alloc<std::_Binder<std::_Unforced,void (__cdecl next::sdk::events::BaseEventTemplate<std::vector<unsigned char,std::allocator<unsigned char> >,next::sdk::events::RequestConfigFromClientInformationMessage>::*)(std::basic_string<char,std::char_traits<char>,std::allocator<char> > const &),next::sdk::events::BaseEventBinary<next::sdk::events::RequestConfigFromClientInformationMessage> *,std::_Ph<1> const &>,void,std::basic_string<char,std::char_traits<char>,std::allocator<char> > >::_Do_call(class std::basic_string<char,std::char_traits<char>,std::allocator<char> > *)
FUNC 4c4e0 11 0 void std::_Func_impl_no_alloc<std::_Binder<std::_Unforced,void (__cdecl next::sdk::events::BaseEventTemplate<std::vector<unsigned char,std::allocator<unsigned char> >,next::sdk::events::RequestConfigFromClientInformationMessage>::*)(std::vector<unsigned char,std::allocator<unsigned char> > const &,__int64,__int64),next::sdk::events::BaseEventBinary<next::sdk::events::RequestConfigFromClientInformationMessage> *,std::_Ph<1> const &,std::_Ph<2> const &,std::_Ph<3> const &>,void,std::vector<unsigned char,std::allocator<unsigned char> > const &,__int64,__int64>::_Do_call(const class std::vector<unsigned char,std::allocator<unsigned char> > & const, __int64 *, __int64 *)
FUNC 4c500 5 0 const void * std::_Func_impl_no_alloc<<lambda_8aff54fb3dd9d144bef176228c474382>,void,std::vector<unsigned char,std::allocator<unsigned char> > const &,__int64,__int64>::_Get()
FUNC 4c510 5 0 const void * std::_Func_impl_no_alloc<std::_Binder<std::_Unforced,void (__cdecl next::sdk::events::BaseEventTemplate<std::vector<unsigned char,std::allocator<unsigned char> >,next::sdk::events::RequestConfigFromClientInformationMessage>::*)(std::basic_string<char,std::char_traits<char>,std::allocator<char> > const &),next::sdk::events::BaseEventBinary<next::sdk::events::RequestConfigFromClientInformationMessage> *,std::_Ph<1> const &>,void,std::basic_string<char,std::char_traits<char>,std::allocator<char> > >::_Get()
FUNC 4c520 5 0 const void * std::_Func_impl_no_alloc<std::_Binder<std::_Unforced,void (__cdecl next::sdk::events::BaseEventTemplate<std::vector<unsigned char,std::allocator<unsigned char> >,next::sdk::events::RequestConfigFromClientInformationMessage>::*)(std::vector<unsigned char,std::allocator<unsigned char> > const &,__int64,__int64),next::sdk::events::BaseEventBinary<next::sdk::events::RequestConfigFromClientInformationMessage> *,std::_Ph<1> const &,std::_Ph<2> const &,std::_Ph<3> const &>,void,std::vector<unsigned char,std::allocator<unsigned char> > const &,__int64,__int64>::_Get()
FUNC 4c530 16 0 class std::_Func_base<void,std::vector<unsigned char,std::allocator<unsigned char> > const &,__int64,__int64> * std::_Func_impl_no_alloc<<lambda_8aff54fb3dd9d144bef176228c474382>,void,std::vector<unsigned char,std::allocator<unsigned char> > const &,__int64,__int64>::_Move(void *)
FUNC 4c550 25 0 class std::_Func_base<void,std::basic_string<char,std::char_traits<char>,std::allocator<char> > > * std::_Func_impl_no_alloc<std::_Binder<std::_Unforced,void (__cdecl next::sdk::events::BaseEventTemplate<std::vector<unsigned char,std::allocator<unsigned char> >,next::sdk::events::RequestConfigFromClientInformationMessage>::*)(std::basic_string<char,std::char_traits<char>,std::allocator<char> > const &),next::sdk::events::BaseEventBinary<next::sdk::events::RequestConfigFromClientInformationMessage> *,std::_Ph<1> const &>,void,std::basic_string<char,std::char_traits<char>,std::allocator<char> > >::_Move(void *)
FUNC 4c580 33 0 class std::_Func_base<void,std::vector<unsigned char,std::allocator<unsigned char> > const &,__int64,__int64> * std::_Func_impl_no_alloc<std::_Binder<std::_Unforced,void (__cdecl next::sdk::events::BaseEventTemplate<std::vector<unsigned char,std::allocator<unsigned char> >,next::sdk::events::RequestConfigFromClientInformationMessage>::*)(std::vector<unsigned char,std::allocator<unsigned char> > const &,__int64,__int64),next::sdk::events::BaseEventBinary<next::sdk::events::RequestConfigFromClientInformationMessage> *,std::_Ph<1> const &,std::_Ph<2> const &,std::_Ph<3> const &>,void,std::vector<unsigned char,std::allocator<unsigned char> > const &,__int64,__int64>::_Move(void *)
FUNC 4c5c0 8 0 const class type_info & const std::_Func_impl_no_alloc<<lambda_8aff54fb3dd9d144bef176228c474382>,void,std::vector<unsigned char,std::allocator<unsigned char> > const &,__int64,__int64>::_Target_type()
FUNC 4c5d0 8 0 const class type_info & const std::_Func_impl_no_alloc<std::_Binder<std::_Unforced,void (__cdecl next::sdk::events::BaseEventTemplate<std::vector<unsigned char,std::allocator<unsigned char> >,next::sdk::events::RequestConfigFromClientInformationMessage>::*)(std::basic_string<char,std::char_traits<char>,std::allocator<char> > const &),next::sdk::events::BaseEventBinary<next::sdk::events::RequestConfigFromClientInformationMessage> *,std::_Ph<1> const &>,void,std::basic_string<char,std::char_traits<char>,std::allocator<char> > >::_Target_type()
FUNC 4c5e0 8 0 const class type_info & const std::_Func_impl_no_alloc<std::_Binder<std::_Unforced,void (__cdecl next::sdk::events::BaseEventTemplate<std::vector<unsigned char,std::allocator<unsigned char> >,next::sdk::events::RequestConfigFromClientInformationMessage>::*)(std::vector<unsigned char,std::allocator<unsigned char> > const &,__int64,__int64),next::sdk::events::BaseEventBinary<next::sdk::events::RequestConfigFromClientInformationMessage> *,std::_Ph<1> const &,std::_Ph<2> const &,std::_Ph<3> const &>,void,std::vector<unsigned char,std::allocator<unsigned char> > const &,__int64,__int64>::_Target_type()
FUNC 4c5f0 6c 0 next::sdk::events::BaseEventTemplate<std::vector<unsigned char,std::allocator<unsigned char> >,next::sdk::events::RequestConfigFromClientInformationMessage>::addEventHook(std::function<void > const &)
FUNC 4c660 fe 0 next::sdk::events::BaseEventTemplate<std::vector<unsigned char,std::allocator<unsigned char> >,next::sdk::events::RequestConfigFromClientInformationMessage>::addListenerAddedHook(std::function<void > const &)
FUNC 4c760 b3 0 next::sdk::events::BaseEventBinary<next::sdk::events::RequestConfigFromClientInformationMessage>::addOnEventRequestedHook(std::function<void >)
FUNC 4c820 6c 0 next::sdk::events::BaseEventTemplate<std::vector<unsigned char,std::allocator<unsigned char> >,next::sdk::events::RequestConfigFromClientInformationMessage>::addSyncEventHook(std::function<void > const &)
FUNC 4c890 62f 0 next::sdk::events::RequestConfigFromClient::deserializeEventPayload(std::vector<unsigned char,std::allocator<unsigned char> > const &)
FUNC 4cec0 21 0 next::sdk::events::BaseEventTemplate<std::vector<unsigned char,std::allocator<unsigned char> >,next::sdk::events::RequestConfigFromClientInformationMessage>::getClassName()
FUNC 4cef0 1c 0 next::sdk::events::BaseEventTemplate<std::vector<unsigned char,std::allocator<unsigned char> >,next::sdk::events::RequestConfigFromClientInformationMessage>::getCurrentNanoSeconds()
FUNC 4cf10 ad 0 next::sdk::events::BaseEventTemplate<std::vector<unsigned char,std::allocator<unsigned char> >,next::sdk::events::RequestConfigFromClientInformationMessage>::getEventData()
FUNC 4cfc0 21 0 next::sdk::events::BaseEventTemplate<std::vector<unsigned char,std::allocator<unsigned char> >,next::sdk::events::RequestConfigFromClientInformationMessage>::getEventName()
FUNC 4cff0 e 0 next::sdk::events::BaseEventTemplate<std::vector<unsigned char,std::allocator<unsigned char> >,next::sdk::events::RequestConfigFromClientInformationMessage>::getHeader()
FUNC 4d000 6a 0 next::sdk::events::BaseEventBinary<next::sdk::events::RequestConfigFromClientInformationMessage>::getNumberOfListeners()
FUNC 4d070 234 0 next::sdk::events::BaseEventBinary<next::sdk::events::RequestConfigFromClientInformationMessage>::initialize()
FUNC 4d2b0 244 0 next::sdk::events::BaseEventTemplate<std::vector<unsigned char,std::allocator<unsigned char> >,next::sdk::events::RequestConfigFromClientInformationMessage>::onEvent(std::vector<unsigned char,std::allocator<unsigned char> > const &,__int64,__int64)
FUNC 4d500 f3 0 next::sdk::events::BaseEventTemplate<std::vector<unsigned char,std::allocator<unsigned char> >,next::sdk::events::RequestConfigFromClientInformationMessage>::onEventListenerAdded(std::basic_string<char,std::char_traits<char>,std::allocator<char> > const &)
FUNC 4d600 f1 0 next::sdk::events::BaseEventTemplate<std::vector<unsigned char,std::allocator<unsigned char> >,next::sdk::events::RequestConfigFromClientInformationMessage>::onSyncEvent(std::vector<unsigned char,std::allocator<unsigned char> > const &,std::basic_string<char,std::char_traits<char>,std::allocator<char> > &)
FUNC 4d700 be 0 next::sdk::events::BaseEventBinary<next::sdk::events::RequestConfigFromClientInformationMessage>::publish(next::sdk::events::RequestConfigFromClientInformationMessage const &)
FUNC 4d7c0 2f0 0 next::sdk::events::BaseEventBinary<next::sdk::events::RequestConfigFromClientInformationMessage>::publish(next::sdk::events::RequestConfigFromClientInformationMessage const &,std::list<std::basic_string<char,std::char_traits<char>,std::allocator<char> >,std::allocator<std::basic_string<char,std::char_traits<char>,std::allocator<char> > > > &)
FUNC 4dab0 33a 0 next::sdk::events::BaseEventBinary<next::sdk::events::RequestConfigFromClientInformationMessage>::requestEventUpdate()
FUNC 4ddf0 1c7 0 next::sdk::events::RequestConfigFromClient::serializeEventPayload(next::sdk::events::RequestConfigFromClientInformationMessage const &)
FUNC 4dfc0 1bd 0 next::sdk::events::BaseEventBinary<next::sdk::events::RequestConfigFromClientInformationMessage>::setUpEventRequestListener()
FUNC 4e180 21f 0 next::sdk::events::BaseEventBinary<next::sdk::events::RequestConfigFromClientInformationMessage>::subscribe()
FUNC 4e3a0 1db 0 next::sdk::events::BaseEventBinary<next::sdk::events::RequestConfigFromServerInformationMessage>::BaseEventBinary<next::sdk::events::RequestConfigFromServerInformationMessage>(std::basic_string<char,std::char_traits<char>,std::allocator<char> >)
FUNC 4e580 16e 0 next::sdk::events::BaseEventTemplate<std::vector<unsigned char,std::allocator<unsigned char> >,next::sdk::events::RequestConfigFromServerInformationMessage>::BaseEventTemplate<std::vector<unsigned char,std::allocator<unsigned char> >,next::sdk::events::RequestConfigFromServerInformationMessage>(std::basic_string<char,std::char_traits<char>,std::allocator<char> >,std::basic_string<char,std::char_traits<char>,std::allocator<char> >)
FUNC 4e6f0 7f 0 next::sdk::events::RequestConfigFromServer::RequestConfigFromServer(std::basic_string<char,std::char_traits<char>,std::allocator<char> >)
FUNC 4e770 287 0 next::sdk::events::BaseEventBinary<next::sdk::events::RequestConfigFromServerInformationMessage>::~BaseEventBinary<next::sdk::events::RequestConfigFromServerInformationMessage>()
FUNC 4ea00 df 0 next::sdk::events::BaseEventTemplate<std::vector<unsigned char,std::allocator<unsigned char> >,next::sdk::events::RequestConfigFromServerInformationMessage>::~BaseEventTemplate<std::vector<unsigned char,std::allocator<unsigned char> >,next::sdk::events::RequestConfigFromServerInformationMessage>()
FUNC 4eae0 5 0 next::sdk::events::RequestConfigFromServer::~RequestConfigFromServer()
FUNC 4eaf0 1f 0 next::sdk::events::RequestConfigFromServerInformationMessage::~RequestConfigFromServerInformationMessage()
PUBLIC 4eb10 0 [thunk]:next::sdk::events::BaseEventTemplate<std::vector<unsigned char,std::allocator<unsigned char> >,next::sdk::events::RequestConfigFromServerInformationMessage>::`vcall'{88,{flat}}' }'
PUBLIC 4eb18 0 [thunk]:next::sdk::events::BaseEventTemplate<std::vector<unsigned char,std::allocator<unsigned char> >,next::sdk::events::RequestConfigFromServerInformationMessage>::`vcall'{96,{flat}}' }'
FUNC 4eb20 96 0 next::sdk::events::BaseEventBinary<next::sdk::events::RequestConfigFromServerInformationMessage>::`vector deleting destructor'(unsigned int)
FUNC 4ebc0 96 0 next::sdk::events::BaseEventTemplate<std::vector<unsigned char,std::allocator<unsigned char> >,next::sdk::events::RequestConfigFromServerInformationMessage>::`vector deleting destructor'(unsigned int)
FUNC 4ec60 96 0 next::sdk::events::RequestConfigFromServer::`vector deleting destructor'(unsigned int)
FUNC 4ed00 34 0 next::sdk::events::BaseEventBinary<next::sdk::events::RequestConfigFromServerInformationMessage>::`scalar deleting destructor'(unsigned int)
FUNC 4ed40 34 0 next::sdk::events::BaseEventTemplate<std::vector<unsigned char,std::allocator<unsigned char> >,next::sdk::events::RequestConfigFromServerInformationMessage>::`scalar deleting destructor'(unsigned int)
FUNC 4ed80 34 0 next::sdk::events::RequestConfigFromServer::`scalar deleting destructor'(unsigned int)
FUNC 4edc0 16 0 class std::_Func_base<void,std::vector<unsigned char,std::allocator<unsigned char> > const &,__int64,__int64> * std::_Func_impl_no_alloc<<lambda_d75565a252c6658114f0d26d9ab987d4>,void,std::vector<unsigned char,std::allocator<unsigned char> > const &,__int64,__int64>::_Copy(void *)
FUNC 4ede0 25 0 class std::_Func_base<void,std::basic_string<char,std::char_traits<char>,std::allocator<char> > > * std::_Func_impl_no_alloc<std::_Binder<std::_Unforced,void (__cdecl next::sdk::events::BaseEventTemplate<std::vector<unsigned char,std::allocator<unsigned char> >,next::sdk::events::RequestConfigFromServerInformationMessage>::*)(std::basic_string<char,std::char_traits<char>,std::allocator<char> > const &),next::sdk::events::BaseEventBinary<next::sdk::events::RequestConfigFromServerInformationMessage> *,std::_Ph<1> const &>,void,std::basic_string<char,std::char_traits<char>,std::allocator<char> > >::_Copy(void *)
FUNC 4ee10 33 0 class std::_Func_base<void,std::vector<unsigned char,std::allocator<unsigned char> > const &,__int64,__int64> * std::_Func_impl_no_alloc<std::_Binder<std::_Unforced,void (__cdecl next::sdk::events::BaseEventTemplate<std::vector<unsigned char,std::allocator<unsigned char> >,next::sdk::events::RequestConfigFromServerInformationMessage>::*)(std::vector<unsigned char,std::allocator<unsigned char> > const &,__int64,__int64),next::sdk::events::BaseEventBinary<next::sdk::events::RequestConfigFromServerInformationMessage> *,std::_Ph<1> const &,std::_Ph<2> const &,std::_Ph<3> const &>,void,std::vector<unsigned char,std::allocator<unsigned char> > const &,__int64,__int64>::_Copy(void *)
FUNC 4ee50 21 0 void std::_Func_impl_no_alloc<<lambda_d75565a252c6658114f0d26d9ab987d4>,void,std::vector<unsigned char,std::allocator<unsigned char> > const &,__int64,__int64>::_Delete_this(bool)
FUNC 4ee80 21 0 void std::_Func_impl_no_alloc<std::_Binder<std::_Unforced,void (__cdecl next::sdk::events::BaseEventTemplate<std::vector<unsigned char,std::allocator<unsigned char> >,next::sdk::events::RequestConfigFromServerInformationMessage>::*)(std::basic_string<char,std::char_traits<char>,std::allocator<char> > const &),next::sdk::events::BaseEventBinary<next::sdk::events::RequestConfigFromServerInformationMessage> *,std::_Ph<1> const &>,void,std::basic_string<char,std::char_traits<char>,std::allocator<char> > >::_Delete_this(bool)
FUNC 4eeb0 21 0 void std::_Func_impl_no_alloc<std::_Binder<std::_Unforced,void (__cdecl next::sdk::events::BaseEventTemplate<std::vector<unsigned char,std::allocator<unsigned char> >,next::sdk::events::RequestConfigFromServerInformationMessage>::*)(std::vector<unsigned char,std::allocator<unsigned char> > const &,__int64,__int64),next::sdk::events::BaseEventBinary<next::sdk::events::RequestConfigFromServerInformationMessage> *,std::_Ph<1> const &,std::_Ph<2> const &,std::_Ph<3> const &>,void,std::vector<unsigned char,std::allocator<unsigned char> > const &,__int64,__int64>::_Delete_this(bool)
FUNC 4eee0 c7 0 void std::_Func_impl_no_alloc<<lambda_d75565a252c6658114f0d26d9ab987d4>,void,std::vector<unsigned char,std::allocator<unsigned char> > const &,__int64,__int64>::_Do_call(const class std::vector<unsigned char,std::allocator<unsigned char> > & const, __int64 *, __int64 *)
FUNC 4efb0 b 0 void std::_Func_impl_no_alloc<std::_Binder<std::_Unforced,void (__cdecl next::sdk::events::BaseEventTemplate<std::vector<unsigned char,std::allocator<unsigned char> >,next::sdk::events::RequestConfigFromServerInformationMessage>::*)(std::basic_string<char,std::char_traits<char>,std::allocator<char> > const &),next::sdk::events::BaseEventBinary<next::sdk::events::RequestConfigFromServerInformationMessage> *,std::_Ph<1> const &>,void,std::basic_string<char,std::char_traits<char>,std::allocator<char> > >::_Do_call(class std::basic_string<char,std::char_traits<char>,std::allocator<char> > *)
FUNC 4efc0 11 0 void std::_Func_impl_no_alloc<std::_Binder<std::_Unforced,void (__cdecl next::sdk::events::BaseEventTemplate<std::vector<unsigned char,std::allocator<unsigned char> >,next::sdk::events::RequestConfigFromServerInformationMessage>::*)(std::vector<unsigned char,std::allocator<unsigned char> > const &,__int64,__int64),next::sdk::events::BaseEventBinary<next::sdk::events::RequestConfigFromServerInformationMessage> *,std::_Ph<1> const &,std::_Ph<2> const &,std::_Ph<3> const &>,void,std::vector<unsigned char,std::allocator<unsigned char> > const &,__int64,__int64>::_Do_call(const class std::vector<unsigned char,std::allocator<unsigned char> > & const, __int64 *, __int64 *)
FUNC 4efe0 5 0 const void * std::_Func_impl_no_alloc<<lambda_d75565a252c6658114f0d26d9ab987d4>,void,std::vector<unsigned char,std::allocator<unsigned char> > const &,__int64,__int64>::_Get()
FUNC 4eff0 5 0 const void * std::_Func_impl_no_alloc<std::_Binder<std::_Unforced,void (__cdecl next::sdk::events::BaseEventTemplate<std::vector<unsigned char,std::allocator<unsigned char> >,next::sdk::events::RequestConfigFromServerInformationMessage>::*)(std::basic_string<char,std::char_traits<char>,std::allocator<char> > const &),next::sdk::events::BaseEventBinary<next::sdk::events::RequestConfigFromServerInformationMessage> *,std::_Ph<1> const &>,void,std::basic_string<char,std::char_traits<char>,std::allocator<char> > >::_Get()
FUNC 4f000 5 0 const void * std::_Func_impl_no_alloc<std::_Binder<std::_Unforced,void (__cdecl next::sdk::events::BaseEventTemplate<std::vector<unsigned char,std::allocator<unsigned char> >,next::sdk::events::RequestConfigFromServerInformationMessage>::*)(std::vector<unsigned char,std::allocator<unsigned char> > const &,__int64,__int64),next::sdk::events::BaseEventBinary<next::sdk::events::RequestConfigFromServerInformationMessage> *,std::_Ph<1> const &,std::_Ph<2> const &,std::_Ph<3> const &>,void,std::vector<unsigned char,std::allocator<unsigned char> > const &,__int64,__int64>::_Get()
FUNC 4f010 16 0 class std::_Func_base<void,std::vector<unsigned char,std::allocator<unsigned char> > const &,__int64,__int64> * std::_Func_impl_no_alloc<<lambda_d75565a252c6658114f0d26d9ab987d4>,void,std::vector<unsigned char,std::allocator<unsigned char> > const &,__int64,__int64>::_Move(void *)
FUNC 4f030 25 0 class std::_Func_base<void,std::basic_string<char,std::char_traits<char>,std::allocator<char> > > * std::_Func_impl_no_alloc<std::_Binder<std::_Unforced,void (__cdecl next::sdk::events::BaseEventTemplate<std::vector<unsigned char,std::allocator<unsigned char> >,next::sdk::events::RequestConfigFromServerInformationMessage>::*)(std::basic_string<char,std::char_traits<char>,std::allocator<char> > const &),next::sdk::events::BaseEventBinary<next::sdk::events::RequestConfigFromServerInformationMessage> *,std::_Ph<1> const &>,void,std::basic_string<char,std::char_traits<char>,std::allocator<char> > >::_Move(void *)
FUNC 4f060 33 0 class std::_Func_base<void,std::vector<unsigned char,std::allocator<unsigned char> > const &,__int64,__int64> * std::_Func_impl_no_alloc<std::_Binder<std::_Unforced,void (__cdecl next::sdk::events::BaseEventTemplate<std::vector<unsigned char,std::allocator<unsigned char> >,next::sdk::events::RequestConfigFromServerInformationMessage>::*)(std::vector<unsigned char,std::allocator<unsigned char> > const &,__int64,__int64),next::sdk::events::BaseEventBinary<next::sdk::events::RequestConfigFromServerInformationMessage> *,std::_Ph<1> const &,std::_Ph<2> const &,std::_Ph<3> const &>,void,std::vector<unsigned char,std::allocator<unsigned char> > const &,__int64,__int64>::_Move(void *)
FUNC 4f0a0 8 0 const class type_info & const std::_Func_impl_no_alloc<<lambda_d75565a252c6658114f0d26d9ab987d4>,void,std::vector<unsigned char,std::allocator<unsigned char> > const &,__int64,__int64>::_Target_type()
FUNC 4f0b0 8 0 const class type_info & const std::_Func_impl_no_alloc<std::_Binder<std::_Unforced,void (__cdecl next::sdk::events::BaseEventTemplate<std::vector<unsigned char,std::allocator<unsigned char> >,next::sdk::events::RequestConfigFromServerInformationMessage>::*)(std::basic_string<char,std::char_traits<char>,std::allocator<char> > const &),next::sdk::events::BaseEventBinary<next::sdk::events::RequestConfigFromServerInformationMessage> *,std::_Ph<1> const &>,void,std::basic_string<char,std::char_traits<char>,std::allocator<char> > >::_Target_type()
FUNC 4f0c0 8 0 const class type_info & const std::_Func_impl_no_alloc<std::_Binder<std::_Unforced,void (__cdecl next::sdk::events::BaseEventTemplate<std::vector<unsigned char,std::allocator<unsigned char> >,next::sdk::events::RequestConfigFromServerInformationMessage>::*)(std::vector<unsigned char,std::allocator<unsigned char> > const &,__int64,__int64),next::sdk::events::BaseEventBinary<next::sdk::events::RequestConfigFromServerInformationMessage> *,std::_Ph<1> const &,std::_Ph<2> const &,std::_Ph<3> const &>,void,std::vector<unsigned char,std::allocator<unsigned char> > const &,__int64,__int64>::_Target_type()
FUNC 4f0d0 6c 0 next::sdk::events::BaseEventTemplate<std::vector<unsigned char,std::allocator<unsigned char> >,next::sdk::events::RequestConfigFromServerInformationMessage>::addEventHook(std::function<void > const &)
FUNC 4f140 fe 0 next::sdk::events::BaseEventTemplate<std::vector<unsigned char,std::allocator<unsigned char> >,next::sdk::events::RequestConfigFromServerInformationMessage>::addListenerAddedHook(std::function<void > const &)
FUNC 4f240 b3 0 next::sdk::events::BaseEventBinary<next::sdk::events::RequestConfigFromServerInformationMessage>::addOnEventRequestedHook(std::function<void >)
FUNC 4f300 6c 0 next::sdk::events::BaseEventTemplate<std::vector<unsigned char,std::allocator<unsigned char> >,next::sdk::events::RequestConfigFromServerInformationMessage>::addSyncEventHook(std::function<void > const &)
FUNC 4f370 4b5 0 next::sdk::events::RequestConfigFromServer::deserializeEventPayload(std::vector<unsigned char,std::allocator<unsigned char> > const &)
FUNC 4f830 21 0 next::sdk::events::BaseEventTemplate<std::vector<unsigned char,std::allocator<unsigned char> >,next::sdk::events::RequestConfigFromServerInformationMessage>::getClassName()
FUNC 4f860 1c 0 next::sdk::events::BaseEventTemplate<std::vector<unsigned char,std::allocator<unsigned char> >,next::sdk::events::RequestConfigFromServerInformationMessage>::getCurrentNanoSeconds()
FUNC 4f880 9c 0 next::sdk::events::BaseEventTemplate<std::vector<unsigned char,std::allocator<unsigned char> >,next::sdk::events::RequestConfigFromServerInformationMessage>::getEventData()
FUNC 4f920 21 0 next::sdk::events::BaseEventTemplate<std::vector<unsigned char,std::allocator<unsigned char> >,next::sdk::events::RequestConfigFromServerInformationMessage>::getEventName()
FUNC 4f950 e 0 next::sdk::events::BaseEventTemplate<std::vector<unsigned char,std::allocator<unsigned char> >,next::sdk::events::RequestConfigFromServerInformationMessage>::getHeader()
FUNC 4f960 6a 0 next::sdk::events::BaseEventBinary<next::sdk::events::RequestConfigFromServerInformationMessage>::getNumberOfListeners()
FUNC 4f9d0 234 0 next::sdk::events::BaseEventBinary<next::sdk::events::RequestConfigFromServerInformationMessage>::initialize()
FUNC 4fc10 1f0 0 next::sdk::events::BaseEventTemplate<std::vector<unsigned char,std::allocator<unsigned char> >,next::sdk::events::RequestConfigFromServerInformationMessage>::onEvent(std::vector<unsigned char,std::allocator<unsigned char> > const &,__int64,__int64)
FUNC 4fe00 f3 0 next::sdk::events::BaseEventTemplate<std::vector<unsigned char,std::allocator<unsigned char> >,next::sdk::events::RequestConfigFromServerInformationMessage>::onEventListenerAdded(std::basic_string<char,std::char_traits<char>,std::allocator<char> > const &)
FUNC 4ff00 f1 0 next::sdk::events::BaseEventTemplate<std::vector<unsigned char,std::allocator<unsigned char> >,next::sdk::events::RequestConfigFromServerInformationMessage>::onSyncEvent(std::vector<unsigned char,std::allocator<unsigned char> > const &,std::basic_string<char,std::char_traits<char>,std::allocator<char> > &)
FUNC 50000 be 0 next::sdk::events::BaseEventBinary<next::sdk::events::RequestConfigFromServerInformationMessage>::publish(next::sdk::events::RequestConfigFromServerInformationMessage const &)
FUNC 500c0 2d0 0 next::sdk::events::BaseEventBinary<next::sdk::events::RequestConfigFromServerInformationMessage>::publish(next::sdk::events::RequestConfigFromServerInformationMessage const &,std::list<std::basic_string<char,std::char_traits<char>,std::allocator<char> >,std::allocator<std::basic_string<char,std::char_traits<char>,std::allocator<char> > > > &)
FUNC 50390 33a 0 next::sdk::events::BaseEventBinary<next::sdk::events::RequestConfigFromServerInformationMessage>::requestEventUpdate()
FUNC 506d0 193 0 next::sdk::events::RequestConfigFromServer::serializeEventPayload(next::sdk::events::RequestConfigFromServerInformationMessage const &)
FUNC 50870 1bd 0 next::sdk::events::BaseEventBinary<next::sdk::events::RequestConfigFromServerInformationMessage>::setUpEventRequestListener()
FUNC 50a30 21f 0 next::sdk::events::BaseEventBinary<next::sdk::events::RequestConfigFromServerInformationMessage>::subscribe()
FUNC 50c50 225 0 next::sdk::events::BaseEventBinary<next::sdk::events::RequestConfigValueFromServerInformationMessage>::BaseEventBinary<next::sdk::events::RequestConfigValueFromServerInformationMessage>(std::basic_string<char,std::char_traits<char>,std::allocator<char> >)
FUNC 50e80 1ba 0 next::sdk::events::BaseEventTemplate<std::vector<unsigned char,std::allocator<unsigned char> >,next::sdk::events::RequestConfigValueFromServerInformationMessage>::BaseEventTemplate<std::vector<unsigned char,std::allocator<unsigned char> >,next::sdk::events::RequestConfigValueFromServerInformationMessage>(std::basic_string<char,std::char_traits<char>,std::allocator<char> >,std::basic_string<char,std::char_traits<char>,std::allocator<char> >)
FUNC 51040 7f 0 next::sdk::events::RequestConfigValueFromServer::RequestConfigValueFromServer(std::basic_string<char,std::char_traits<char>,std::allocator<char> >)
FUNC 510c0 2a3 0 next::sdk::events::BaseEventBinary<next::sdk::events::RequestConfigValueFromServerInformationMessage>::~BaseEventBinary<next::sdk::events::RequestConfigValueFromServerInformationMessage>()
FUNC 51370 f9 0 next::sdk::events::BaseEventTemplate<std::vector<unsigned char,std::allocator<unsigned char> >,next::sdk::events::RequestConfigValueFromServerInformationMessage>::~BaseEventTemplate<std::vector<unsigned char,std::allocator<unsigned char> >,next::sdk::events::RequestConfigValueFromServerInformationMessage>()
FUNC 51470 5 0 next::sdk::events::RequestConfigValueFromServer::~RequestConfigValueFromServer()
FUNC 51480 31 0 next::sdk::events::RequestConfigValueFromServerInformationMessage::~RequestConfigValueFromServerInformationMessage()
PUBLIC 514b4 0 [thunk]:next::sdk::events::BaseEventTemplate<std::vector<unsigned char,std::allocator<unsigned char> >,next::sdk::events::RequestConfigValueFromServerInformationMessage>::`vcall'{88,{flat}}' }'
PUBLIC 514bc 0 [thunk]:next::sdk::events::BaseEventTemplate<std::vector<unsigned char,std::allocator<unsigned char> >,next::sdk::events::RequestConfigValueFromServerInformationMessage>::`vcall'{96,{flat}}' }'
FUNC 514d0 96 0 next::sdk::events::BaseEventBinary<next::sdk::events::RequestConfigValueFromServerInformationMessage>::`vector deleting destructor'(unsigned int)
FUNC 51570 96 0 next::sdk::events::BaseEventTemplate<std::vector<unsigned char,std::allocator<unsigned char> >,next::sdk::events::RequestConfigValueFromServerInformationMessage>::`vector deleting destructor'(unsigned int)
FUNC 51610 96 0 next::sdk::events::RequestConfigValueFromServer::`vector deleting destructor'(unsigned int)
FUNC 516b0 34 0 next::sdk::events::BaseEventBinary<next::sdk::events::RequestConfigValueFromServerInformationMessage>::`scalar deleting destructor'(unsigned int)
FUNC 516f0 34 0 next::sdk::events::BaseEventTemplate<std::vector<unsigned char,std::allocator<unsigned char> >,next::sdk::events::RequestConfigValueFromServerInformationMessage>::`scalar deleting destructor'(unsigned int)
FUNC 51730 34 0 next::sdk::events::RequestConfigValueFromServer::`scalar deleting destructor'(unsigned int)
FUNC 51770 16 0 class std::_Func_base<void,std::vector<unsigned char,std::allocator<unsigned char> > const &,__int64,__int64> * std::_Func_impl_no_alloc<<lambda_2c4ba161c57639cb44ca0a991a9314e9>,void,std::vector<unsigned char,std::allocator<unsigned char> > const &,__int64,__int64>::_Copy(void *)
FUNC 51790 25 0 class std::_Func_base<void,std::basic_string<char,std::char_traits<char>,std::allocator<char> > > * std::_Func_impl_no_alloc<std::_Binder<std::_Unforced,void (__cdecl next::sdk::events::BaseEventTemplate<std::vector<unsigned char,std::allocator<unsigned char> >,next::sdk::events::RequestConfigValueFromServerInformationMessage>::*)(std::basic_string<char,std::char_traits<char>,std::allocator<char> > const &),next::sdk::events::BaseEventBinary<next::sdk::events::RequestConfigValueFromServerInformationMessage> *,std::_Ph<1> const &>,void,std::basic_string<char,std::char_traits<char>,std::allocator<char> > >::_Copy(void *)
FUNC 517c0 33 0 class std::_Func_base<void,std::vector<unsigned char,std::allocator<unsigned char> > const &,__int64,__int64> * std::_Func_impl_no_alloc<std::_Binder<std::_Unforced,void (__cdecl next::sdk::events::BaseEventTemplate<std::vector<unsigned char,std::allocator<unsigned char> >,next::sdk::events::RequestConfigValueFromServerInformationMessage>::*)(std::vector<unsigned char,std::allocator<unsigned char> > const &,__int64,__int64),next::sdk::events::BaseEventBinary<next::sdk::events::RequestConfigValueFromServerInformationMessage> *,std::_Ph<1> const &,std::_Ph<2> const &,std::_Ph<3> const &>,void,std::vector<unsigned char,std::allocator<unsigned char> > const &,__int64,__int64>::_Copy(void *)
FUNC 51800 21 0 void std::_Func_impl_no_alloc<<lambda_2c4ba161c57639cb44ca0a991a9314e9>,void,std::vector<unsigned char,std::allocator<unsigned char> > const &,__int64,__int64>::_Delete_this(bool)
FUNC 51830 21 0 void std::_Func_impl_no_alloc<std::_Binder<std::_Unforced,void (__cdecl next::sdk::events::BaseEventTemplate<std::vector<unsigned char,std::allocator<unsigned char> >,next::sdk::events::RequestConfigValueFromServerInformationMessage>::*)(std::basic_string<char,std::char_traits<char>,std::allocator<char> > const &),next::sdk::events::BaseEventBinary<next::sdk::events::RequestConfigValueFromServerInformationMessage> *,std::_Ph<1> const &>,void,std::basic_string<char,std::char_traits<char>,std::allocator<char> > >::_Delete_this(bool)
FUNC 51860 21 0 void std::_Func_impl_no_alloc<std::_Binder<std::_Unforced,void (__cdecl next::sdk::events::BaseEventTemplate<std::vector<unsigned char,std::allocator<unsigned char> >,next::sdk::events::RequestConfigValueFromServerInformationMessage>::*)(std::vector<unsigned char,std::allocator<unsigned char> > const &,__int64,__int64),next::sdk::events::BaseEventBinary<next::sdk::events::RequestConfigValueFromServerInformationMessage> *,std::_Ph<1> const &,std::_Ph<2> const &,std::_Ph<3> const &>,void,std::vector<unsigned char,std::allocator<unsigned char> > const &,__int64,__int64>::_Delete_this(bool)
FUNC 51890 c7 0 void std::_Func_impl_no_alloc<<lambda_2c4ba161c57639cb44ca0a991a9314e9>,void,std::vector<unsigned char,std::allocator<unsigned char> > const &,__int64,__int64>::_Do_call(const class std::vector<unsigned char,std::allocator<unsigned char> > & const, __int64 *, __int64 *)
FUNC 51960 b 0 void std::_Func_impl_no_alloc<std::_Binder<std::_Unforced,void (__cdecl next::sdk::events::BaseEventTemplate<std::vector<unsigned char,std::allocator<unsigned char> >,next::sdk::events::RequestConfigValueFromServerInformationMessage>::*)(std::basic_string<char,std::char_traits<char>,std::allocator<char> > const &),next::sdk::events::BaseEventBinary<next::sdk::events::RequestConfigValueFromServerInformationMessage> *,std::_Ph<1> const &>,void,std::basic_string<char,std::char_traits<char>,std::allocator<char> > >::_Do_call(class std::basic_string<char,std::char_traits<char>,std::allocator<char> > *)
FUNC 51970 11 0 void std::_Func_impl_no_alloc<std::_Binder<std::_Unforced,void (__cdecl next::sdk::events::BaseEventTemplate<std::vector<unsigned char,std::allocator<unsigned char> >,next::sdk::events::RequestConfigValueFromServerInformationMessage>::*)(std::vector<unsigned char,std::allocator<unsigned char> > const &,__int64,__int64),next::sdk::events::BaseEventBinary<next::sdk::events::RequestConfigValueFromServerInformationMessage> *,std::_Ph<1> const &,std::_Ph<2> const &,std::_Ph<3> const &>,void,std::vector<unsigned char,std::allocator<unsigned char> > const &,__int64,__int64>::_Do_call(const class std::vector<unsigned char,std::allocator<unsigned char> > & const, __int64 *, __int64 *)
FUNC 51990 5 0 const void * std::_Func_impl_no_alloc<<lambda_2c4ba161c57639cb44ca0a991a9314e9>,void,std::vector<unsigned char,std::allocator<unsigned char> > const &,__int64,__int64>::_Get()
FUNC 519a0 5 0 const void * std::_Func_impl_no_alloc<std::_Binder<std::_Unforced,void (__cdecl next::sdk::events::BaseEventTemplate<std::vector<unsigned char,std::allocator<unsigned char> >,next::sdk::events::RequestConfigValueFromServerInformationMessage>::*)(std::basic_string<char,std::char_traits<char>,std::allocator<char> > const &),next::sdk::events::BaseEventBinary<next::sdk::events::RequestConfigValueFromServerInformationMessage> *,std::_Ph<1> const &>,void,std::basic_string<char,std::char_traits<char>,std::allocator<char> > >::_Get()
FUNC 519b0 5 0 const void * std::_Func_impl_no_alloc<std::_Binder<std::_Unforced,void (__cdecl next::sdk::events::BaseEventTemplate<std::vector<unsigned char,std::allocator<unsigned char> >,next::sdk::events::RequestConfigValueFromServerInformationMessage>::*)(std::vector<unsigned char,std::allocator<unsigned char> > const &,__int64,__int64),next::sdk::events::BaseEventBinary<next::sdk::events::RequestConfigValueFromServerInformationMessage> *,std::_Ph<1> const &,std::_Ph<2> const &,std::_Ph<3> const &>,void,std::vector<unsigned char,std::allocator<unsigned char> > const &,__int64,__int64>::_Get()
FUNC 519c0 16 0 class std::_Func_base<void,std::vector<unsigned char,std::allocator<unsigned char> > const &,__int64,__int64> * std::_Func_impl_no_alloc<<lambda_2c4ba161c57639cb44ca0a991a9314e9>,void,std::vector<unsigned char,std::allocator<unsigned char> > const &,__int64,__int64>::_Move(void *)
FUNC 519e0 25 0 class std::_Func_base<void,std::basic_string<char,std::char_traits<char>,std::allocator<char> > > * std::_Func_impl_no_alloc<std::_Binder<std::_Unforced,void (__cdecl next::sdk::events::BaseEventTemplate<std::vector<unsigned char,std::allocator<unsigned char> >,next::sdk::events::RequestConfigValueFromServerInformationMessage>::*)(std::basic_string<char,std::char_traits<char>,std::allocator<char> > const &),next::sdk::events::BaseEventBinary<next::sdk::events::RequestConfigValueFromServerInformationMessage> *,std::_Ph<1> const &>,void,std::basic_string<char,std::char_traits<char>,std::allocator<char> > >::_Move(void *)
FUNC 51a10 33 0 class std::_Func_base<void,std::vector<unsigned char,std::allocator<unsigned char> > const &,__int64,__int64> * std::_Func_impl_no_alloc<std::_Binder<std::_Unforced,void (__cdecl next::sdk::events::BaseEventTemplate<std::vector<unsigned char,std::allocator<unsigned char> >,next::sdk::events::RequestConfigValueFromServerInformationMessage>::*)(std::vector<unsigned char,std::allocator<unsigned char> > const &,__int64,__int64),next::sdk::events::BaseEventBinary<next::sdk::events::RequestConfigValueFromServerInformationMessage> *,std::_Ph<1> const &,std::_Ph<2> const &,std::_Ph<3> const &>,void,std::vector<unsigned char,std::allocator<unsigned char> > const &,__int64,__int64>::_Move(void *)
FUNC 51a50 8 0 const class type_info & const std::_Func_impl_no_alloc<<lambda_2c4ba161c57639cb44ca0a991a9314e9>,void,std::vector<unsigned char,std::allocator<unsigned char> > const &,__int64,__int64>::_Target_type()
FUNC 51a60 8 0 const class type_info & const std::_Func_impl_no_alloc<std::_Binder<std::_Unforced,void (__cdecl next::sdk::events::BaseEventTemplate<std::vector<unsigned char,std::allocator<unsigned char> >,next::sdk::events::RequestConfigValueFromServerInformationMessage>::*)(std::basic_string<char,std::char_traits<char>,std::allocator<char> > const &),next::sdk::events::BaseEventBinary<next::sdk::events::RequestConfigValueFromServerInformationMessage> *,std::_Ph<1> const &>,void,std::basic_string<char,std::char_traits<char>,std::allocator<char> > >::_Target_type()
FUNC 51a70 8 0 const class type_info & const std::_Func_impl_no_alloc<std::_Binder<std::_Unforced,void (__cdecl next::sdk::events::BaseEventTemplate<std::vector<unsigned char,std::allocator<unsigned char> >,next::sdk::events::RequestConfigValueFromServerInformationMessage>::*)(std::vector<unsigned char,std::allocator<unsigned char> > const &,__int64,__int64),next::sdk::events::BaseEventBinary<next::sdk::events::RequestConfigValueFromServerInformationMessage> *,std::_Ph<1> const &,std::_Ph<2> const &,std::_Ph<3> const &>,void,std::vector<unsigned char,std::allocator<unsigned char> > const &,__int64,__int64>::_Target_type()
FUNC 51a80 6c 0 next::sdk::events::BaseEventTemplate<std::vector<unsigned char,std::allocator<unsigned char> >,next::sdk::events::RequestConfigValueFromServerInformationMessage>::addEventHook(std::function<void > const &)
FUNC 51af0 fe 0 next::sdk::events::BaseEventTemplate<std::vector<unsigned char,std::allocator<unsigned char> >,next::sdk::events::RequestConfigValueFromServerInformationMessage>::addListenerAddedHook(std::function<void > const &)
FUNC 51bf0 b3 0 next::sdk::events::BaseEventBinary<next::sdk::events::RequestConfigValueFromServerInformationMessage>::addOnEventRequestedHook(std::function<void >)
FUNC 51cb0 6c 0 next::sdk::events::BaseEventTemplate<std::vector<unsigned char,std::allocator<unsigned char> >,next::sdk::events::RequestConfigValueFromServerInformationMessage>::addSyncEventHook(std::function<void > const &)
FUNC 51d20 7a9 0 next::sdk::events::RequestConfigValueFromServer::deserializeEventPayload(std::vector<unsigned char,std::allocator<unsigned char> > const &)
FUNC 524d0 21 0 next::sdk::events::BaseEventTemplate<std::vector<unsigned char,std::allocator<unsigned char> >,next::sdk::events::RequestConfigValueFromServerInformationMessage>::getClassName()
FUNC 52500 1c 0 next::sdk::events::BaseEventTemplate<std::vector<unsigned char,std::allocator<unsigned char> >,next::sdk::events::RequestConfigValueFromServerInformationMessage>::getCurrentNanoSeconds()
FUNC 52520 be 0 next::sdk::events::BaseEventTemplate<std::vector<unsigned char,std::allocator<unsigned char> >,next::sdk::events::RequestConfigValueFromServerInformationMessage>::getEventData()
FUNC 525e0 21 0 next::sdk::events::BaseEventTemplate<std::vector<unsigned char,std::allocator<unsigned char> >,next::sdk::events::RequestConfigValueFromServerInformationMessage>::getEventName()
FUNC 52610 e 0 next::sdk::events::BaseEventTemplate<std::vector<unsigned char,std::allocator<unsigned char> >,next::sdk::events::RequestConfigValueFromServerInformationMessage>::getHeader()
FUNC 52620 6a 0 next::sdk::events::BaseEventBinary<next::sdk::events::RequestConfigValueFromServerInformationMessage>::getNumberOfListeners()
FUNC 52690 234 0 next::sdk::events::BaseEventBinary<next::sdk::events::RequestConfigValueFromServerInformationMessage>::initialize()
FUNC 528d0 284 0 next::sdk::events::BaseEventTemplate<std::vector<unsigned char,std::allocator<unsigned char> >,next::sdk::events::RequestConfigValueFromServerInformationMessage>::onEvent(std::vector<unsigned char,std::allocator<unsigned char> > const &,__int64,__int64)
FUNC 52b60 f3 0 next::sdk::events::BaseEventTemplate<std::vector<unsigned char,std::allocator<unsigned char> >,next::sdk::events::RequestConfigValueFromServerInformationMessage>::onEventListenerAdded(std::basic_string<char,std::char_traits<char>,std::allocator<char> > const &)
FUNC 52c60 f1 0 next::sdk::events::BaseEventTemplate<std::vector<unsigned char,std::allocator<unsigned char> >,next::sdk::events::RequestConfigValueFromServerInformationMessage>::onSyncEvent(std::vector<unsigned char,std::allocator<unsigned char> > const &,std::basic_string<char,std::char_traits<char>,std::allocator<char> > &)
FUNC 52d60 be 0 next::sdk::events::BaseEventBinary<next::sdk::events::RequestConfigValueFromServerInformationMessage>::publish(next::sdk::events::RequestConfigValueFromServerInformationMessage const &)
FUNC 52e20 310 0 next::sdk::events::BaseEventBinary<next::sdk::events::RequestConfigValueFromServerInformationMessage>::publish(next::sdk::events::RequestConfigValueFromServerInformationMessage const &,std::list<std::basic_string<char,std::char_traits<char>,std::allocator<char> >,std::allocator<std::basic_string<char,std::char_traits<char>,std::allocator<char> > > > &)
FUNC 53130 33a 0 next::sdk::events::BaseEventBinary<next::sdk::events::RequestConfigValueFromServerInformationMessage>::requestEventUpdate()
FUNC 53470 1fa 0 next::sdk::events::RequestConfigValueFromServer::serializeEventPayload(next::sdk::events::RequestConfigValueFromServerInformationMessage const &)
FUNC 53670 1bd 0 next::sdk::events::BaseEventBinary<next::sdk::events::RequestConfigValueFromServerInformationMessage>::setUpEventRequestListener()
FUNC 53830 21f 0 next::sdk::events::BaseEventBinary<next::sdk::events::RequestConfigValueFromServerInformationMessage>::subscribe()
FUNC 53a50 205 0 next::sdk::events::BaseEventBinary<next::sdk::events::SendConfigToClientInformationMessage>::BaseEventBinary<next::sdk::events::SendConfigToClientInformationMessage>(std::basic_string<char,std::char_traits<char>,std::allocator<char> >)
FUNC 53c60 19a 0 next::sdk::events::BaseEventTemplate<std::vector<unsigned char,std::allocator<unsigned char> >,next::sdk::events::SendConfigToClientInformationMessage>::BaseEventTemplate<std::vector<unsigned char,std::allocator<unsigned char> >,next::sdk::events::SendConfigToClientInformationMessage>(std::basic_string<char,std::char_traits<char>,std::allocator<char> >,std::basic_string<char,std::char_traits<char>,std::allocator<char> >)
FUNC 53e00 7f 0 next::sdk::events::SendConfigToClient::SendConfigToClient(std::basic_string<char,std::char_traits<char>,std::allocator<char> >)
FUNC 53e80 295 0 next::sdk::events::BaseEventBinary<next::sdk::events::SendConfigToClientInformationMessage>::~BaseEventBinary<next::sdk::events::SendConfigToClientInformationMessage>()
FUNC 54120 ec 0 next::sdk::events::BaseEventTemplate<std::vector<unsigned char,std::allocator<unsigned char> >,next::sdk::events::SendConfigToClientInformationMessage>::~BaseEventTemplate<std::vector<unsigned char,std::allocator<unsigned char> >,next::sdk::events::SendConfigToClientInformationMessage>()
FUNC 54210 5 0 next::sdk::events::SendConfigToClient::~SendConfigToClient()
FUNC 54220 28 0 next::sdk::events::SendConfigToClientInformationMessage::~SendConfigToClientInformationMessage()
PUBLIC 54248 0 [thunk]:next::sdk::events::BaseEventTemplate<std::vector<unsigned char,std::allocator<unsigned char> >,next::sdk::events::SendConfigToClientInformationMessage>::`vcall'{88,{flat}}' }'
PUBLIC 54250 0 [thunk]:next::sdk::events::BaseEventTemplate<std::vector<unsigned char,std::allocator<unsigned char> >,next::sdk::events::SendConfigToClientInformationMessage>::`vcall'{96,{flat}}' }'
FUNC 54260 96 0 next::sdk::events::BaseEventBinary<next::sdk::events::SendConfigToClientInformationMessage>::`vector deleting destructor'(unsigned int)
FUNC 54300 96 0 next::sdk::events::BaseEventTemplate<std::vector<unsigned char,std::allocator<unsigned char> >,next::sdk::events::SendConfigToClientInformationMessage>::`vector deleting destructor'(unsigned int)
FUNC 543a0 96 0 next::sdk::events::SendConfigToClient::`vector deleting destructor'(unsigned int)
FUNC 54440 34 0 next::sdk::events::BaseEventBinary<next::sdk::events::SendConfigToClientInformationMessage>::`scalar deleting destructor'(unsigned int)
FUNC 54480 34 0 next::sdk::events::BaseEventTemplate<std::vector<unsigned char,std::allocator<unsigned char> >,next::sdk::events::SendConfigToClientInformationMessage>::`scalar deleting destructor'(unsigned int)
FUNC 544c0 34 0 next::sdk::events::SendConfigToClient::`scalar deleting destructor'(unsigned int)
FUNC 54500 16 0 class std::_Func_base<void,std::vector<unsigned char,std::allocator<unsigned char> > const &,__int64,__int64> * std::_Func_impl_no_alloc<<lambda_8ffc44fc34b9d8132c1cd5ca91ef2cb1>,void,std::vector<unsigned char,std::allocator<unsigned char> > const &,__int64,__int64>::_Copy(void *)
FUNC 54520 25 0 class std::_Func_base<void,std::basic_string<char,std::char_traits<char>,std::allocator<char> > > * std::_Func_impl_no_alloc<std::_Binder<std::_Unforced,void (__cdecl next::sdk::events::BaseEventTemplate<std::vector<unsigned char,std::allocator<unsigned char> >,next::sdk::events::SendConfigToClientInformationMessage>::*)(std::basic_string<char,std::char_traits<char>,std::allocator<char> > const &),next::sdk::events::BaseEventBinary<next::sdk::events::SendConfigToClientInformationMessage> *,std::_Ph<1> const &>,void,std::basic_string<char,std::char_traits<char>,std::allocator<char> > >::_Copy(void *)
FUNC 54550 33 0 class std::_Func_base<void,std::vector<unsigned char,std::allocator<unsigned char> > const &,__int64,__int64> * std::_Func_impl_no_alloc<std::_Binder<std::_Unforced,void (__cdecl next::sdk::events::BaseEventTemplate<std::vector<unsigned char,std::allocator<unsigned char> >,next::sdk::events::SendConfigToClientInformationMessage>::*)(std::vector<unsigned char,std::allocator<unsigned char> > const &,__int64,__int64),next::sdk::events::BaseEventBinary<next::sdk::events::SendConfigToClientInformationMessage> *,std::_Ph<1> const &,std::_Ph<2> const &,std::_Ph<3> const &>,void,std::vector<unsigned char,std::allocator<unsigned char> > const &,__int64,__int64>::_Copy(void *)
FUNC 54590 21 0 void std::_Func_impl_no_alloc<<lambda_8ffc44fc34b9d8132c1cd5ca91ef2cb1>,void,std::vector<unsigned char,std::allocator<unsigned char> > const &,__int64,__int64>::_Delete_this(bool)
FUNC 545c0 21 0 void std::_Func_impl_no_alloc<std::_Binder<std::_Unforced,void (__cdecl next::sdk::events::BaseEventTemplate<std::vector<unsigned char,std::allocator<unsigned char> >,next::sdk::events::SendConfigToClientInformationMessage>::*)(std::basic_string<char,std::char_traits<char>,std::allocator<char> > const &),next::sdk::events::BaseEventBinary<next::sdk::events::SendConfigToClientInformationMessage> *,std::_Ph<1> const &>,void,std::basic_string<char,std::char_traits<char>,std::allocator<char> > >::_Delete_this(bool)
FUNC 545f0 21 0 void std::_Func_impl_no_alloc<std::_Binder<std::_Unforced,void (__cdecl next::sdk::events::BaseEventTemplate<std::vector<unsigned char,std::allocator<unsigned char> >,next::sdk::events::SendConfigToClientInformationMessage>::*)(std::vector<unsigned char,std::allocator<unsigned char> > const &,__int64,__int64),next::sdk::events::BaseEventBinary<next::sdk::events::SendConfigToClientInformationMessage> *,std::_Ph<1> const &,std::_Ph<2> const &,std::_Ph<3> const &>,void,std::vector<unsigned char,std::allocator<unsigned char> > const &,__int64,__int64>::_Delete_this(bool)
FUNC 54620 c7 0 void std::_Func_impl_no_alloc<<lambda_8ffc44fc34b9d8132c1cd5ca91ef2cb1>,void,std::vector<unsigned char,std::allocator<unsigned char> > const &,__int64,__int64>::_Do_call(const class std::vector<unsigned char,std::allocator<unsigned char> > & const, __int64 *, __int64 *)
FUNC 546f0 b 0 void std::_Func_impl_no_alloc<std::_Binder<std::_Unforced,void (__cdecl next::sdk::events::BaseEventTemplate<std::vector<unsigned char,std::allocator<unsigned char> >,next::sdk::events::SendConfigToClientInformationMessage>::*)(std::basic_string<char,std::char_traits<char>,std::allocator<char> > const &),next::sdk::events::BaseEventBinary<next::sdk::events::SendConfigToClientInformationMessage> *,std::_Ph<1> const &>,void,std::basic_string<char,std::char_traits<char>,std::allocator<char> > >::_Do_call(class std::basic_string<char,std::char_traits<char>,std::allocator<char> > *)
FUNC 54700 11 0 void std::_Func_impl_no_alloc<std::_Binder<std::_Unforced,void (__cdecl next::sdk::events::BaseEventTemplate<std::vector<unsigned char,std::allocator<unsigned char> >,next::sdk::events::SendConfigToClientInformationMessage>::*)(std::vector<unsigned char,std::allocator<unsigned char> > const &,__int64,__int64),next::sdk::events::BaseEventBinary<next::sdk::events::SendConfigToClientInformationMessage> *,std::_Ph<1> const &,std::_Ph<2> const &,std::_Ph<3> const &>,void,std::vector<unsigned char,std::allocator<unsigned char> > const &,__int64,__int64>::_Do_call(const class std::vector<unsigned char,std::allocator<unsigned char> > & const, __int64 *, __int64 *)
FUNC 54720 5 0 const void * std::_Func_impl_no_alloc<<lambda_8ffc44fc34b9d8132c1cd5ca91ef2cb1>,void,std::vector<unsigned char,std::allocator<unsigned char> > const &,__int64,__int64>::_Get()
FUNC 54730 5 0 const void * std::_Func_impl_no_alloc<std::_Binder<std::_Unforced,void (__cdecl next::sdk::events::BaseEventTemplate<std::vector<unsigned char,std::allocator<unsigned char> >,next::sdk::events::SendConfigToClientInformationMessage>::*)(std::basic_string<char,std::char_traits<char>,std::allocator<char> > const &),next::sdk::events::BaseEventBinary<next::sdk::events::SendConfigToClientInformationMessage> *,std::_Ph<1> const &>,void,std::basic_string<char,std::char_traits<char>,std::allocator<char> > >::_Get()
FUNC 54740 5 0 const void * std::_Func_impl_no_alloc<std::_Binder<std::_Unforced,void (__cdecl next::sdk::events::BaseEventTemplate<std::vector<unsigned char,std::allocator<unsigned char> >,next::sdk::events::SendConfigToClientInformationMessage>::*)(std::vector<unsigned char,std::allocator<unsigned char> > const &,__int64,__int64),next::sdk::events::BaseEventBinary<next::sdk::events::SendConfigToClientInformationMessage> *,std::_Ph<1> const &,std::_Ph<2> const &,std::_Ph<3> const &>,void,std::vector<unsigned char,std::allocator<unsigned char> > const &,__int64,__int64>::_Get()
FUNC 54750 16 0 class std::_Func_base<void,std::vector<unsigned char,std::allocator<unsigned char> > const &,__int64,__int64> * std::_Func_impl_no_alloc<<lambda_8ffc44fc34b9d8132c1cd5ca91ef2cb1>,void,std::vector<unsigned char,std::allocator<unsigned char> > const &,__int64,__int64>::_Move(void *)
FUNC 54770 25 0 class std::_Func_base<void,std::basic_string<char,std::char_traits<char>,std::allocator<char> > > * std::_Func_impl_no_alloc<std::_Binder<std::_Unforced,void (__cdecl next::sdk::events::BaseEventTemplate<std::vector<unsigned char,std::allocator<unsigned char> >,next::sdk::events::SendConfigToClientInformationMessage>::*)(std::basic_string<char,std::char_traits<char>,std::allocator<char> > const &),next::sdk::events::BaseEventBinary<next::sdk::events::SendConfigToClientInformationMessage> *,std::_Ph<1> const &>,void,std::basic_string<char,std::char_traits<char>,std::allocator<char> > >::_Move(void *)
FUNC 547a0 33 0 class std::_Func_base<void,std::vector<unsigned char,std::allocator<unsigned char> > const &,__int64,__int64> * std::_Func_impl_no_alloc<std::_Binder<std::_Unforced,void (__cdecl next::sdk::events::BaseEventTemplate<std::vector<unsigned char,std::allocator<unsigned char> >,next::sdk::events::SendConfigToClientInformationMessage>::*)(std::vector<unsigned char,std::allocator<unsigned char> > const &,__int64,__int64),next::sdk::events::BaseEventBinary<next::sdk::events::SendConfigToClientInformationMessage> *,std::_Ph<1> const &,std::_Ph<2> const &,std::_Ph<3> const &>,void,std::vector<unsigned char,std::allocator<unsigned char> > const &,__int64,__int64>::_Move(void *)
FUNC 547e0 8 0 const class type_info & const std::_Func_impl_no_alloc<<lambda_8ffc44fc34b9d8132c1cd5ca91ef2cb1>,void,std::vector<unsigned char,std::allocator<unsigned char> > const &,__int64,__int64>::_Target_type()
FUNC 547f0 8 0 const class type_info & const std::_Func_impl_no_alloc<std::_Binder<std::_Unforced,void (__cdecl next::sdk::events::BaseEventTemplate<std::vector<unsigned char,std::allocator<unsigned char> >,next::sdk::events::SendConfigToClientInformationMessage>::*)(std::basic_string<char,std::char_traits<char>,std::allocator<char> > const &),next::sdk::events::BaseEventBinary<next::sdk::events::SendConfigToClientInformationMessage> *,std::_Ph<1> const &>,void,std::basic_string<char,std::char_traits<char>,std::allocator<char> > >::_Target_type()
FUNC 54800 8 0 const class type_info & const std::_Func_impl_no_alloc<std::_Binder<std::_Unforced,void (__cdecl next::sdk::events::BaseEventTemplate<std::vector<unsigned char,std::allocator<unsigned char> >,next::sdk::events::SendConfigToClientInformationMessage>::*)(std::vector<unsigned char,std::allocator<unsigned char> > const &,__int64,__int64),next::sdk::events::BaseEventBinary<next::sdk::events::SendConfigToClientInformationMessage> *,std::_Ph<1> const &,std::_Ph<2> const &,std::_Ph<3> const &>,void,std::vector<unsigned char,std::allocator<unsigned char> > const &,__int64,__int64>::_Target_type()
FUNC 54810 6c 0 next::sdk::events::BaseEventTemplate<std::vector<unsigned char,std::allocator<unsigned char> >,next::sdk::events::SendConfigToClientInformationMessage>::addEventHook(std::function<void > const &)
FUNC 54880 fe 0 next::sdk::events::BaseEventTemplate<std::vector<unsigned char,std::allocator<unsigned char> >,next::sdk::events::SendConfigToClientInformationMessage>::addListenerAddedHook(std::function<void > const &)
FUNC 54980 b3 0 next::sdk::events::BaseEventBinary<next::sdk::events::SendConfigToClientInformationMessage>::addOnEventRequestedHook(std::function<void >)
FUNC 54a40 6c 0 next::sdk::events::BaseEventTemplate<std::vector<unsigned char,std::allocator<unsigned char> >,next::sdk::events::SendConfigToClientInformationMessage>::addSyncEventHook(std::function<void > const &)
FUNC 54ab0 779 0 next::sdk::events::SendConfigToClient::deserializeEventPayload(std::vector<unsigned char,std::allocator<unsigned char> > const &)
FUNC 55230 21 0 next::sdk::events::BaseEventTemplate<std::vector<unsigned char,std::allocator<unsigned char> >,next::sdk::events::SendConfigToClientInformationMessage>::getClassName()
FUNC 55260 1c 0 next::sdk::events::BaseEventTemplate<std::vector<unsigned char,std::allocator<unsigned char> >,next::sdk::events::SendConfigToClientInformationMessage>::getCurrentNanoSeconds()
FUNC 55280 b6 0 next::sdk::events::BaseEventTemplate<std::vector<unsigned char,std::allocator<unsigned char> >,next::sdk::events::SendConfigToClientInformationMessage>::getEventData()
FUNC 55340 21 0 next::sdk::events::BaseEventTemplate<std::vector<unsigned char,std::allocator<unsigned char> >,next::sdk::events::SendConfigToClientInformationMessage>::getEventName()
FUNC 55370 e 0 next::sdk::events::BaseEventTemplate<std::vector<unsigned char,std::allocator<unsigned char> >,next::sdk::events::SendConfigToClientInformationMessage>::getHeader()
FUNC 55380 6a 0 next::sdk::events::BaseEventBinary<next::sdk::events::SendConfigToClientInformationMessage>::getNumberOfListeners()
FUNC 553f0 234 0 next::sdk::events::BaseEventBinary<next::sdk::events::SendConfigToClientInformationMessage>::initialize()
FUNC 55630 254 0 next::sdk::events::BaseEventTemplate<std::vector<unsigned char,std::allocator<unsigned char> >,next::sdk::events::SendConfigToClientInformationMessage>::onEvent(std::vector<unsigned char,std::allocator<unsigned char> > const &,__int64,__int64)
FUNC 55890 f3 0 next::sdk::events::BaseEventTemplate<std::vector<unsigned char,std::allocator<unsigned char> >,next::sdk::events::SendConfigToClientInformationMessage>::onEventListenerAdded(std::basic_string<char,std::char_traits<char>,std::allocator<char> > const &)
FUNC 55990 f1 0 next::sdk::events::BaseEventTemplate<std::vector<unsigned char,std::allocator<unsigned char> >,next::sdk::events::SendConfigToClientInformationMessage>::onSyncEvent(std::vector<unsigned char,std::allocator<unsigned char> > const &,std::basic_string<char,std::char_traits<char>,std::allocator<char> > &)
FUNC 55a90 be 0 next::sdk::events::BaseEventBinary<next::sdk::events::SendConfigToClientInformationMessage>::publish(next::sdk::events::SendConfigToClientInformationMessage const &)
FUNC 55b50 2f7 0 next::sdk::events::BaseEventBinary<next::sdk::events::SendConfigToClientInformationMessage>::publish(next::sdk::events::SendConfigToClientInformationMessage const &,std::list<std::basic_string<char,std::char_traits<char>,std::allocator<char> >,std::allocator<std::basic_string<char,std::char_traits<char>,std::allocator<char> > > > &)
FUNC 55e50 33a 0 next::sdk::events::BaseEventBinary<next::sdk::events::SendConfigToClientInformationMessage>::requestEventUpdate()
FUNC 56190 22f 0 next::sdk::events::SendConfigToClient::serializeEventPayload(next::sdk::events::SendConfigToClientInformationMessage const &)
FUNC 563c0 1bd 0 next::sdk::events::BaseEventBinary<next::sdk::events::SendConfigToClientInformationMessage>::setUpEventRequestListener()
FUNC 56580 21f 0 next::sdk::events::BaseEventBinary<next::sdk::events::SendConfigToClientInformationMessage>::subscribe()
FUNC 567a0 1db 0 next::sdk::events::BaseEventBinary<next::sdk::events::SendConfigTagsToServerInformationMessage>::BaseEventBinary<next::sdk::events::SendConfigTagsToServerInformationMessage>(std::basic_string<char,std::char_traits<char>,std::allocator<char> >)
FUNC 56980 16e 0 next::sdk::events::BaseEventTemplate<std::vector<unsigned char,std::allocator<unsigned char> >,next::sdk::events::SendConfigTagsToServerInformationMessage>::BaseEventTemplate<std::vector<unsigned char,std::allocator<unsigned char> >,next::sdk::events::SendConfigTagsToServerInformationMessage>(std::basic_string<char,std::char_traits<char>,std::allocator<char> >,std::basic_string<char,std::char_traits<char>,std::allocator<char> >)
FUNC 56af0 76 0 next::sdk::events::SendConfigTagsToServer::SendConfigTagsToServer(std::basic_string<char,std::char_traits<char>,std::allocator<char> >)
FUNC 56b70 287 0 next::sdk::events::BaseEventBinary<next::sdk::events::SendConfigTagsToServerInformationMessage>::~BaseEventBinary<next::sdk::events::SendConfigTagsToServerInformationMessage>()
FUNC 56e00 df 0 next::sdk::events::BaseEventTemplate<std::vector<unsigned char,std::allocator<unsigned char> >,next::sdk::events::SendConfigTagsToServerInformationMessage>::~BaseEventTemplate<std::vector<unsigned char,std::allocator<unsigned char> >,next::sdk::events::SendConfigTagsToServerInformationMessage>()
FUNC 56ee0 5 0 next::sdk::events::SendConfigTagsToServer::~SendConfigTagsToServer()
FUNC 56ef0 1f 0 next::sdk::events::SendConfigTagsToServerInformationMessage::~SendConfigTagsToServerInformationMessage()
PUBLIC 56f10 0 [thunk]:next::sdk::events::BaseEventTemplate<std::vector<unsigned char,std::allocator<unsigned char> >,next::sdk::events::SendConfigTagsToServerInformationMessage>::`vcall'{88,{flat}}' }'
PUBLIC 56f18 0 [thunk]:next::sdk::events::BaseEventTemplate<std::vector<unsigned char,std::allocator<unsigned char> >,next::sdk::events::SendConfigTagsToServerInformationMessage>::`vcall'{96,{flat}}' }'
FUNC 56f20 96 0 next::sdk::events::BaseEventBinary<next::sdk::events::SendConfigTagsToServerInformationMessage>::`vector deleting destructor'(unsigned int)
FUNC 56fc0 96 0 next::sdk::events::BaseEventTemplate<std::vector<unsigned char,std::allocator<unsigned char> >,next::sdk::events::SendConfigTagsToServerInformationMessage>::`vector deleting destructor'(unsigned int)
FUNC 57060 96 0 next::sdk::events::SendConfigTagsToServer::`vector deleting destructor'(unsigned int)
FUNC 57100 34 0 next::sdk::events::BaseEventBinary<next::sdk::events::SendConfigTagsToServerInformationMessage>::`scalar deleting destructor'(unsigned int)
FUNC 57140 34 0 next::sdk::events::BaseEventTemplate<std::vector<unsigned char,std::allocator<unsigned char> >,next::sdk::events::SendConfigTagsToServerInformationMessage>::`scalar deleting destructor'(unsigned int)
FUNC 57180 34 0 next::sdk::events::SendConfigTagsToServer::`scalar deleting destructor'(unsigned int)
FUNC 571c0 16 0 class std::_Func_base<void,std::vector<unsigned char,std::allocator<unsigned char> > const &,__int64,__int64> * std::_Func_impl_no_alloc<<lambda_926bcb0ef48bd4f662e78f2a0efbfdc8>,void,std::vector<unsigned char,std::allocator<unsigned char> > const &,__int64,__int64>::_Copy(void *)
FUNC 571e0 25 0 class std::_Func_base<void,std::basic_string<char,std::char_traits<char>,std::allocator<char> > > * std::_Func_impl_no_alloc<std::_Binder<std::_Unforced,void (__cdecl next::sdk::events::BaseEventTemplate<std::vector<unsigned char,std::allocator<unsigned char> >,next::sdk::events::SendConfigTagsToServerInformationMessage>::*)(std::basic_string<char,std::char_traits<char>,std::allocator<char> > const &),next::sdk::events::BaseEventBinary<next::sdk::events::SendConfigTagsToServerInformationMessage> *,std::_Ph<1> const &>,void,std::basic_string<char,std::char_traits<char>,std::allocator<char> > >::_Copy(void *)
FUNC 57210 33 0 class std::_Func_base<void,std::vector<unsigned char,std::allocator<unsigned char> > const &,__int64,__int64> * std::_Func_impl_no_alloc<std::_Binder<std::_Unforced,void (__cdecl next::sdk::events::BaseEventTemplate<std::vector<unsigned char,std::allocator<unsigned char> >,next::sdk::events::SendConfigTagsToServerInformationMessage>::*)(std::vector<unsigned char,std::allocator<unsigned char> > const &,__int64,__int64),next::sdk::events::BaseEventBinary<next::sdk::events::SendConfigTagsToServerInformationMessage> *,std::_Ph<1> const &,std::_Ph<2> const &,std::_Ph<3> const &>,void,std::vector<unsigned char,std::allocator<unsigned char> > const &,__int64,__int64>::_Copy(void *)
FUNC 57250 21 0 void std::_Func_impl_no_alloc<<lambda_926bcb0ef48bd4f662e78f2a0efbfdc8>,void,std::vector<unsigned char,std::allocator<unsigned char> > const &,__int64,__int64>::_Delete_this(bool)
FUNC 57280 21 0 void std::_Func_impl_no_alloc<std::_Binder<std::_Unforced,void (__cdecl next::sdk::events::BaseEventTemplate<std::vector<unsigned char,std::allocator<unsigned char> >,next::sdk::events::SendConfigTagsToServerInformationMessage>::*)(std::basic_string<char,std::char_traits<char>,std::allocator<char> > const &),next::sdk::events::BaseEventBinary<next::sdk::events::SendConfigTagsToServerInformationMessage> *,std::_Ph<1> const &>,void,std::basic_string<char,std::char_traits<char>,std::allocator<char> > >::_Delete_this(bool)
FUNC 572b0 21 0 void std::_Func_impl_no_alloc<std::_Binder<std::_Unforced,void (__cdecl next::sdk::events::BaseEventTemplate<std::vector<unsigned char,std::allocator<unsigned char> >,next::sdk::events::SendConfigTagsToServerInformationMessage>::*)(std::vector<unsigned char,std::allocator<unsigned char> > const &,__int64,__int64),next::sdk::events::BaseEventBinary<next::sdk::events::SendConfigTagsToServerInformationMessage> *,std::_Ph<1> const &,std::_Ph<2> const &,std::_Ph<3> const &>,void,std::vector<unsigned char,std::allocator<unsigned char> > const &,__int64,__int64>::_Delete_this(bool)
FUNC 572e0 c7 0 void std::_Func_impl_no_alloc<<lambda_926bcb0ef48bd4f662e78f2a0efbfdc8>,void,std::vector<unsigned char,std::allocator<unsigned char> > const &,__int64,__int64>::_Do_call(const class std::vector<unsigned char,std::allocator<unsigned char> > & const, __int64 *, __int64 *)
FUNC 573b0 b 0 void std::_Func_impl_no_alloc<std::_Binder<std::_Unforced,void (__cdecl next::sdk::events::BaseEventTemplate<std::vector<unsigned char,std::allocator<unsigned char> >,next::sdk::events::SendConfigTagsToServerInformationMessage>::*)(std::basic_string<char,std::char_traits<char>,std::allocator<char> > const &),next::sdk::events::BaseEventBinary<next::sdk::events::SendConfigTagsToServerInformationMessage> *,std::_Ph<1> const &>,void,std::basic_string<char,std::char_traits<char>,std::allocator<char> > >::_Do_call(class std::basic_string<char,std::char_traits<char>,std::allocator<char> > *)
FUNC 573c0 11 0 void std::_Func_impl_no_alloc<std::_Binder<std::_Unforced,void (__cdecl next::sdk::events::BaseEventTemplate<std::vector<unsigned char,std::allocator<unsigned char> >,next::sdk::events::SendConfigTagsToServerInformationMessage>::*)(std::vector<unsigned char,std::allocator<unsigned char> > const &,__int64,__int64),next::sdk::events::BaseEventBinary<next::sdk::events::SendConfigTagsToServerInformationMessage> *,std::_Ph<1> const &,std::_Ph<2> const &,std::_Ph<3> const &>,void,std::vector<unsigned char,std::allocator<unsigned char> > const &,__int64,__int64>::_Do_call(const class std::vector<unsigned char,std::allocator<unsigned char> > & const, __int64 *, __int64 *)
FUNC 573e0 5 0 const void * std::_Func_impl_no_alloc<<lambda_926bcb0ef48bd4f662e78f2a0efbfdc8>,void,std::vector<unsigned char,std::allocator<unsigned char> > const &,__int64,__int64>::_Get()
FUNC 573f0 5 0 const void * std::_Func_impl_no_alloc<std::_Binder<std::_Unforced,void (__cdecl next::sdk::events::BaseEventTemplate<std::vector<unsigned char,std::allocator<unsigned char> >,next::sdk::events::SendConfigTagsToServerInformationMessage>::*)(std::basic_string<char,std::char_traits<char>,std::allocator<char> > const &),next::sdk::events::BaseEventBinary<next::sdk::events::SendConfigTagsToServerInformationMessage> *,std::_Ph<1> const &>,void,std::basic_string<char,std::char_traits<char>,std::allocator<char> > >::_Get()
FUNC 57400 5 0 const void * std::_Func_impl_no_alloc<std::_Binder<std::_Unforced,void (__cdecl next::sdk::events::BaseEventTemplate<std::vector<unsigned char,std::allocator<unsigned char> >,next::sdk::events::SendConfigTagsToServerInformationMessage>::*)(std::vector<unsigned char,std::allocator<unsigned char> > const &,__int64,__int64),next::sdk::events::BaseEventBinary<next::sdk::events::SendConfigTagsToServerInformationMessage> *,std::_Ph<1> const &,std::_Ph<2> const &,std::_Ph<3> const &>,void,std::vector<unsigned char,std::allocator<unsigned char> > const &,__int64,__int64>::_Get()
FUNC 57410 16 0 class std::_Func_base<void,std::vector<unsigned char,std::allocator<unsigned char> > const &,__int64,__int64> * std::_Func_impl_no_alloc<<lambda_926bcb0ef48bd4f662e78f2a0efbfdc8>,void,std::vector<unsigned char,std::allocator<unsigned char> > const &,__int64,__int64>::_Move(void *)
FUNC 57430 25 0 class std::_Func_base<void,std::basic_string<char,std::char_traits<char>,std::allocator<char> > > * std::_Func_impl_no_alloc<std::_Binder<std::_Unforced,void (__cdecl next::sdk::events::BaseEventTemplate<std::vector<unsigned char,std::allocator<unsigned char> >,next::sdk::events::SendConfigTagsToServerInformationMessage>::*)(std::basic_string<char,std::char_traits<char>,std::allocator<char> > const &),next::sdk::events::BaseEventBinary<next::sdk::events::SendConfigTagsToServerInformationMessage> *,std::_Ph<1> const &>,void,std::basic_string<char,std::char_traits<char>,std::allocator<char> > >::_Move(void *)
FUNC 57460 33 0 class std::_Func_base<void,std::vector<unsigned char,std::allocator<unsigned char> > const &,__int64,__int64> * std::_Func_impl_no_alloc<std::_Binder<std::_Unforced,void (__cdecl next::sdk::events::BaseEventTemplate<std::vector<unsigned char,std::allocator<unsigned char> >,next::sdk::events::SendConfigTagsToServerInformationMessage>::*)(std::vector<unsigned char,std::allocator<unsigned char> > const &,__int64,__int64),next::sdk::events::BaseEventBinary<next::sdk::events::SendConfigTagsToServerInformationMessage> *,std::_Ph<1> const &,std::_Ph<2> const &,std::_Ph<3> const &>,void,std::vector<unsigned char,std::allocator<unsigned char> > const &,__int64,__int64>::_Move(void *)
FUNC 574a0 8 0 const class type_info & const std::_Func_impl_no_alloc<<lambda_926bcb0ef48bd4f662e78f2a0efbfdc8>,void,std::vector<unsigned char,std::allocator<unsigned char> > const &,__int64,__int64>::_Target_type()
FUNC 574b0 8 0 const class type_info & const std::_Func_impl_no_alloc<std::_Binder<std::_Unforced,void (__cdecl next::sdk::events::BaseEventTemplate<std::vector<unsigned char,std::allocator<unsigned char> >,next::sdk::events::SendConfigTagsToServerInformationMessage>::*)(std::basic_string<char,std::char_traits<char>,std::allocator<char> > const &),next::sdk::events::BaseEventBinary<next::sdk::events::SendConfigTagsToServerInformationMessage> *,std::_Ph<1> const &>,void,std::basic_string<char,std::char_traits<char>,std::allocator<char> > >::_Target_type()
FUNC 574c0 8 0 const class type_info & const std::_Func_impl_no_alloc<std::_Binder<std::_Unforced,void (__cdecl next::sdk::events::BaseEventTemplate<std::vector<unsigned char,std::allocator<unsigned char> >,next::sdk::events::SendConfigTagsToServerInformationMessage>::*)(std::vector<unsigned char,std::allocator<unsigned char> > const &,__int64,__int64),next::sdk::events::BaseEventBinary<next::sdk::events::SendConfigTagsToServerInformationMessage> *,std::_Ph<1> const &,std::_Ph<2> const &,std::_Ph<3> const &>,void,std::vector<unsigned char,std::allocator<unsigned char> > const &,__int64,__int64>::_Target_type()
FUNC 574d0 6c 0 next::sdk::events::BaseEventTemplate<std::vector<unsigned char,std::allocator<unsigned char> >,next::sdk::events::SendConfigTagsToServerInformationMessage>::addEventHook(std::function<void > const &)
FUNC 57540 fe 0 next::sdk::events::BaseEventTemplate<std::vector<unsigned char,std::allocator<unsigned char> >,next::sdk::events::SendConfigTagsToServerInformationMessage>::addListenerAddedHook(std::function<void > const &)
FUNC 57640 b3 0 next::sdk::events::BaseEventBinary<next::sdk::events::SendConfigTagsToServerInformationMessage>::addOnEventRequestedHook(std::function<void >)
FUNC 57700 6c 0 next::sdk::events::BaseEventTemplate<std::vector<unsigned char,std::allocator<unsigned char> >,next::sdk::events::SendConfigTagsToServerInformationMessage>::addSyncEventHook(std::function<void > const &)
FUNC 57770 4b5 0 next::sdk::events::SendConfigTagsToServer::deserializeEventPayload(std::vector<unsigned char,std::allocator<unsigned char> > const &)
FUNC 57c30 21 0 next::sdk::events::BaseEventTemplate<std::vector<unsigned char,std::allocator<unsigned char> >,next::sdk::events::SendConfigTagsToServerInformationMessage>::getClassName()
FUNC 57c60 1c 0 next::sdk::events::BaseEventTemplate<std::vector<unsigned char,std::allocator<unsigned char> >,next::sdk::events::SendConfigTagsToServerInformationMessage>::getCurrentNanoSeconds()
FUNC 57c80 9c 0 next::sdk::events::BaseEventTemplate<std::vector<unsigned char,std::allocator<unsigned char> >,next::sdk::events::SendConfigTagsToServerInformationMessage>::getEventData()
FUNC 57d20 21 0 next::sdk::events::BaseEventTemplate<std::vector<unsigned char,std::allocator<unsigned char> >,next::sdk::events::SendConfigTagsToServerInformationMessage>::getEventName()
FUNC 57d50 e 0 next::sdk::events::BaseEventTemplate<std::vector<unsigned char,std::allocator<unsigned char> >,next::sdk::events::SendConfigTagsToServerInformationMessage>::getHeader()
FUNC 57d60 6a 0 next::sdk::events::BaseEventBinary<next::sdk::events::SendConfigTagsToServerInformationMessage>::getNumberOfListeners()
FUNC 57dd0 234 0 next::sdk::events::BaseEventBinary<next::sdk::events::SendConfigTagsToServerInformationMessage>::initialize()
FUNC 58010 1f0 0 next::sdk::events::BaseEventTemplate<std::vector<unsigned char,std::allocator<unsigned char> >,next::sdk::events::SendConfigTagsToServerInformationMessage>::onEvent(std::vector<unsigned char,std::allocator<unsigned char> > const &,__int64,__int64)
FUNC 58200 f3 0 next::sdk::events::BaseEventTemplate<std::vector<unsigned char,std::allocator<unsigned char> >,next::sdk::events::SendConfigTagsToServerInformationMessage>::onEventListenerAdded(std::basic_string<char,std::char_traits<char>,std::allocator<char> > const &)
FUNC 58300 f1 0 next::sdk::events::BaseEventTemplate<std::vector<unsigned char,std::allocator<unsigned char> >,next::sdk::events::SendConfigTagsToServerInformationMessage>::onSyncEvent(std::vector<unsigned char,std::allocator<unsigned char> > const &,std::basic_string<char,std::char_traits<char>,std::allocator<char> > &)
FUNC 58400 be 0 next::sdk::events::BaseEventBinary<next::sdk::events::SendConfigTagsToServerInformationMessage>::publish(next::sdk::events::SendConfigTagsToServerInformationMessage const &)
FUNC 584c0 2d0 0 next::sdk::events::BaseEventBinary<next::sdk::events::SendConfigTagsToServerInformationMessage>::publish(next::sdk::events::SendConfigTagsToServerInformationMessage const &,std::list<std::basic_string<char,std::char_traits<char>,std::allocator<char> >,std::allocator<std::basic_string<char,std::char_traits<char>,std::allocator<char> > > > &)
FUNC 58790 33a 0 next::sdk::events::BaseEventBinary<next::sdk::events::SendConfigTagsToServerInformationMessage>::requestEventUpdate()
FUNC 58ad0 1b3 0 next::sdk::events::SendConfigTagsToServer::serializeEventPayload(next::sdk::events::SendConfigTagsToServerInformationMessage const &)
FUNC 58c90 1bd 0 next::sdk::events::BaseEventBinary<next::sdk::events::SendConfigTagsToServerInformationMessage>::setUpEventRequestListener()
FUNC 58e50 21f 0 next::sdk::events::BaseEventBinary<next::sdk::events::SendConfigTagsToServerInformationMessage>::subscribe()
FUNC 59070 1db 0 next::sdk::events::BaseEventBinary<next::sdk::events::SendConfigToServerInformationMessage>::BaseEventBinary<next::sdk::events::SendConfigToServerInformationMessage>(std::basic_string<char,std::char_traits<char>,std::allocator<char> >)
FUNC 59250 16e 0 next::sdk::events::BaseEventTemplate<std::vector<unsigned char,std::allocator<unsigned char> >,next::sdk::events::SendConfigToServerInformationMessage>::BaseEventTemplate<std::vector<unsigned char,std::allocator<unsigned char> >,next::sdk::events::SendConfigToServerInformationMessage>(std::basic_string<char,std::char_traits<char>,std::allocator<char> >,std::basic_string<char,std::char_traits<char>,std::allocator<char> >)
FUNC 593c0 7f 0 next::sdk::events::SendConfigToServer::SendConfigToServer(std::basic_string<char,std::char_traits<char>,std::allocator<char> >)
FUNC 59440 287 0 next::sdk::events::BaseEventBinary<next::sdk::events::SendConfigToServerInformationMessage>::~BaseEventBinary<next::sdk::events::SendConfigToServerInformationMessage>()
FUNC 596d0 df 0 next::sdk::events::BaseEventTemplate<std::vector<unsigned char,std::allocator<unsigned char> >,next::sdk::events::SendConfigToServerInformationMessage>::~BaseEventTemplate<std::vector<unsigned char,std::allocator<unsigned char> >,next::sdk::events::SendConfigToServerInformationMessage>()
FUNC 597b0 5 0 next::sdk::events::SendConfigToServer::~SendConfigToServer()
FUNC 597c0 1f 0 next::sdk::events::SendConfigToServerInformationMessage::~SendConfigToServerInformationMessage()
PUBLIC 597e0 0 [thunk]:next::sdk::events::BaseEventTemplate<std::vector<unsigned char,std::allocator<unsigned char> >,next::sdk::events::SendConfigToServerInformationMessage>::`vcall'{88,{flat}}' }'
PUBLIC 597e8 0 [thunk]:next::sdk::events::BaseEventTemplate<std::vector<unsigned char,std::allocator<unsigned char> >,next::sdk::events::SendConfigToServerInformationMessage>::`vcall'{96,{flat}}' }'
FUNC 597f0 96 0 next::sdk::events::BaseEventBinary<next::sdk::events::SendConfigToServerInformationMessage>::`vector deleting destructor'(unsigned int)
FUNC 59890 96 0 next::sdk::events::BaseEventTemplate<std::vector<unsigned char,std::allocator<unsigned char> >,next::sdk::events::SendConfigToServerInformationMessage>::`vector deleting destructor'(unsigned int)
FUNC 59930 96 0 next::sdk::events::SendConfigToServer::`vector deleting destructor'(unsigned int)
FUNC 599d0 34 0 next::sdk::events::BaseEventBinary<next::sdk::events::SendConfigToServerInformationMessage>::`scalar deleting destructor'(unsigned int)
FUNC 59a10 34 0 next::sdk::events::BaseEventTemplate<std::vector<unsigned char,std::allocator<unsigned char> >,next::sdk::events::SendConfigToServerInformationMessage>::`scalar deleting destructor'(unsigned int)
FUNC 59a50 34 0 next::sdk::events::SendConfigToServer::`scalar deleting destructor'(unsigned int)
FUNC 59a90 16 0 class std::_Func_base<void,std::vector<unsigned char,std::allocator<unsigned char> > const &,__int64,__int64> * std::_Func_impl_no_alloc<<lambda_627b5a563a1e0247267168b7290d99f1>,void,std::vector<unsigned char,std::allocator<unsigned char> > const &,__int64,__int64>::_Copy(void *)
FUNC 59ab0 25 0 class std::_Func_base<void,std::basic_string<char,std::char_traits<char>,std::allocator<char> > > * std::_Func_impl_no_alloc<std::_Binder<std::_Unforced,void (__cdecl next::sdk::events::BaseEventTemplate<std::vector<unsigned char,std::allocator<unsigned char> >,next::sdk::events::SendConfigToServerInformationMessage>::*)(std::basic_string<char,std::char_traits<char>,std::allocator<char> > const &),next::sdk::events::BaseEventBinary<next::sdk::events::SendConfigToServerInformationMessage> *,std::_Ph<1> const &>,void,std::basic_string<char,std::char_traits<char>,std::allocator<char> > >::_Copy(void *)
FUNC 59ae0 33 0 class std::_Func_base<void,std::vector<unsigned char,std::allocator<unsigned char> > const &,__int64,__int64> * std::_Func_impl_no_alloc<std::_Binder<std::_Unforced,void (__cdecl next::sdk::events::BaseEventTemplate<std::vector<unsigned char,std::allocator<unsigned char> >,next::sdk::events::SendConfigToServerInformationMessage>::*)(std::vector<unsigned char,std::allocator<unsigned char> > const &,__int64,__int64),next::sdk::events::BaseEventBinary<next::sdk::events::SendConfigToServerInformationMessage> *,std::_Ph<1> const &,std::_Ph<2> const &,std::_Ph<3> const &>,void,std::vector<unsigned char,std::allocator<unsigned char> > const &,__int64,__int64>::_Copy(void *)
FUNC 59b20 21 0 void std::_Func_impl_no_alloc<<lambda_627b5a563a1e0247267168b7290d99f1>,void,std::vector<unsigned char,std::allocator<unsigned char> > const &,__int64,__int64>::_Delete_this(bool)
FUNC 59b50 21 0 void std::_Func_impl_no_alloc<std::_Binder<std::_Unforced,void (__cdecl next::sdk::events::BaseEventTemplate<std::vector<unsigned char,std::allocator<unsigned char> >,next::sdk::events::SendConfigToServerInformationMessage>::*)(std::basic_string<char,std::char_traits<char>,std::allocator<char> > const &),next::sdk::events::BaseEventBinary<next::sdk::events::SendConfigToServerInformationMessage> *,std::_Ph<1> const &>,void,std::basic_string<char,std::char_traits<char>,std::allocator<char> > >::_Delete_this(bool)
FUNC 59b80 21 0 void std::_Func_impl_no_alloc<std::_Binder<std::_Unforced,void (__cdecl next::sdk::events::BaseEventTemplate<std::vector<unsigned char,std::allocator<unsigned char> >,next::sdk::events::SendConfigToServerInformationMessage>::*)(std::vector<unsigned char,std::allocator<unsigned char> > const &,__int64,__int64),next::sdk::events::BaseEventBinary<next::sdk::events::SendConfigToServerInformationMessage> *,std::_Ph<1> const &,std::_Ph<2> const &,std::_Ph<3> const &>,void,std::vector<unsigned char,std::allocator<unsigned char> > const &,__int64,__int64>::_Delete_this(bool)
FUNC 59bb0 c7 0 void std::_Func_impl_no_alloc<<lambda_627b5a563a1e0247267168b7290d99f1>,void,std::vector<unsigned char,std::allocator<unsigned char> > const &,__int64,__int64>::_Do_call(const class std::vector<unsigned char,std::allocator<unsigned char> > & const, __int64 *, __int64 *)
FUNC 59c80 b 0 void std::_Func_impl_no_alloc<std::_Binder<std::_Unforced,void (__cdecl next::sdk::events::BaseEventTemplate<std::vector<unsigned char,std::allocator<unsigned char> >,next::sdk::events::SendConfigToServerInformationMessage>::*)(std::basic_string<char,std::char_traits<char>,std::allocator<char> > const &),next::sdk::events::BaseEventBinary<next::sdk::events::SendConfigToServerInformationMessage> *,std::_Ph<1> const &>,void,std::basic_string<char,std::char_traits<char>,std::allocator<char> > >::_Do_call(class std::basic_string<char,std::char_traits<char>,std::allocator<char> > *)
FUNC 59c90 11 0 void std::_Func_impl_no_alloc<std::_Binder<std::_Unforced,void (__cdecl next::sdk::events::BaseEventTemplate<std::vector<unsigned char,std::allocator<unsigned char> >,next::sdk::events::SendConfigToServerInformationMessage>::*)(std::vector<unsigned char,std::allocator<unsigned char> > const &,__int64,__int64),next::sdk::events::BaseEventBinary<next::sdk::events::SendConfigToServerInformationMessage> *,std::_Ph<1> const &,std::_Ph<2> const &,std::_Ph<3> const &>,void,std::vector<unsigned char,std::allocator<unsigned char> > const &,__int64,__int64>::_Do_call(const class std::vector<unsigned char,std::allocator<unsigned char> > & const, __int64 *, __int64 *)
FUNC 59cb0 5 0 const void * std::_Func_impl_no_alloc<<lambda_627b5a563a1e0247267168b7290d99f1>,void,std::vector<unsigned char,std::allocator<unsigned char> > const &,__int64,__int64>::_Get()
FUNC 59cc0 5 0 const void * std::_Func_impl_no_alloc<std::_Binder<std::_Unforced,void (__cdecl next::sdk::events::BaseEventTemplate<std::vector<unsigned char,std::allocator<unsigned char> >,next::sdk::events::SendConfigToServerInformationMessage>::*)(std::basic_string<char,std::char_traits<char>,std::allocator<char> > const &),next::sdk::events::BaseEventBinary<next::sdk::events::SendConfigToServerInformationMessage> *,std::_Ph<1> const &>,void,std::basic_string<char,std::char_traits<char>,std::allocator<char> > >::_Get()
FUNC 59cd0 5 0 const void * std::_Func_impl_no_alloc<std::_Binder<std::_Unforced,void (__cdecl next::sdk::events::BaseEventTemplate<std::vector<unsigned char,std::allocator<unsigned char> >,next::sdk::events::SendConfigToServerInformationMessage>::*)(std::vector<unsigned char,std::allocator<unsigned char> > const &,__int64,__int64),next::sdk::events::BaseEventBinary<next::sdk::events::SendConfigToServerInformationMessage> *,std::_Ph<1> const &,std::_Ph<2> const &,std::_Ph<3> const &>,void,std::vector<unsigned char,std::allocator<unsigned char> > const &,__int64,__int64>::_Get()
FUNC 59ce0 16 0 class std::_Func_base<void,std::vector<unsigned char,std::allocator<unsigned char> > const &,__int64,__int64> * std::_Func_impl_no_alloc<<lambda_627b5a563a1e0247267168b7290d99f1>,void,std::vector<unsigned char,std::allocator<unsigned char> > const &,__int64,__int64>::_Move(void *)
FUNC 59d00 25 0 class std::_Func_base<void,std::basic_string<char,std::char_traits<char>,std::allocator<char> > > * std::_Func_impl_no_alloc<std::_Binder<std::_Unforced,void (__cdecl next::sdk::events::BaseEventTemplate<std::vector<unsigned char,std::allocator<unsigned char> >,next::sdk::events::SendConfigToServerInformationMessage>::*)(std::basic_string<char,std::char_traits<char>,std::allocator<char> > const &),next::sdk::events::BaseEventBinary<next::sdk::events::SendConfigToServerInformationMessage> *,std::_Ph<1> const &>,void,std::basic_string<char,std::char_traits<char>,std::allocator<char> > >::_Move(void *)
FUNC 59d30 33 0 class std::_Func_base<void,std::vector<unsigned char,std::allocator<unsigned char> > const &,__int64,__int64> * std::_Func_impl_no_alloc<std::_Binder<std::_Unforced,void (__cdecl next::sdk::events::BaseEventTemplate<std::vector<unsigned char,std::allocator<unsigned char> >,next::sdk::events::SendConfigToServerInformationMessage>::*)(std::vector<unsigned char,std::allocator<unsigned char> > const &,__int64,__int64),next::sdk::events::BaseEventBinary<next::sdk::events::SendConfigToServerInformationMessage> *,std::_Ph<1> const &,std::_Ph<2> const &,std::_Ph<3> const &>,void,std::vector<unsigned char,std::allocator<unsigned char> > const &,__int64,__int64>::_Move(void *)
FUNC 59d70 8 0 const class type_info & const std::_Func_impl_no_alloc<<lambda_627b5a563a1e0247267168b7290d99f1>,void,std::vector<unsigned char,std::allocator<unsigned char> > const &,__int64,__int64>::_Target_type()
FUNC 59d80 8 0 const class type_info & const std::_Func_impl_no_alloc<std::_Binder<std::_Unforced,void (__cdecl next::sdk::events::BaseEventTemplate<std::vector<unsigned char,std::allocator<unsigned char> >,next::sdk::events::SendConfigToServerInformationMessage>::*)(std::basic_string<char,std::char_traits<char>,std::allocator<char> > const &),next::sdk::events::BaseEventBinary<next::sdk::events::SendConfigToServerInformationMessage> *,std::_Ph<1> const &>,void,std::basic_string<char,std::char_traits<char>,std::allocator<char> > >::_Target_type()
FUNC 59d90 8 0 const class type_info & const std::_Func_impl_no_alloc<std::_Binder<std::_Unforced,void (__cdecl next::sdk::events::BaseEventTemplate<std::vector<unsigned char,std::allocator<unsigned char> >,next::sdk::events::SendConfigToServerInformationMessage>::*)(std::vector<unsigned char,std::allocator<unsigned char> > const &,__int64,__int64),next::sdk::events::BaseEventBinary<next::sdk::events::SendConfigToServerInformationMessage> *,std::_Ph<1> const &,std::_Ph<2> const &,std::_Ph<3> const &>,void,std::vector<unsigned char,std::allocator<unsigned char> > const &,__int64,__int64>::_Target_type()
FUNC 59da0 6c 0 next::sdk::events::BaseEventTemplate<std::vector<unsigned char,std::allocator<unsigned char> >,next::sdk::events::SendConfigToServerInformationMessage>::addEventHook(std::function<void > const &)
FUNC 59e10 fe 0 next::sdk::events::BaseEventTemplate<std::vector<unsigned char,std::allocator<unsigned char> >,next::sdk::events::SendConfigToServerInformationMessage>::addListenerAddedHook(std::function<void > const &)
FUNC 59f10 b3 0 next::sdk::events::BaseEventBinary<next::sdk::events::SendConfigToServerInformationMessage>::addOnEventRequestedHook(std::function<void >)
FUNC 59fd0 6c 0 next::sdk::events::BaseEventTemplate<std::vector<unsigned char,std::allocator<unsigned char> >,next::sdk::events::SendConfigToServerInformationMessage>::addSyncEventHook(std::function<void > const &)
FUNC 5a040 4b5 0 next::sdk::events::SendConfigToServer::deserializeEventPayload(std::vector<unsigned char,std::allocator<unsigned char> > const &)
FUNC 5a500 21 0 next::sdk::events::BaseEventTemplate<std::vector<unsigned char,std::allocator<unsigned char> >,next::sdk::events::SendConfigToServerInformationMessage>::getClassName()
FUNC 5a530 1c 0 next::sdk::events::BaseEventTemplate<std::vector<unsigned char,std::allocator<unsigned char> >,next::sdk::events::SendConfigToServerInformationMessage>::getCurrentNanoSeconds()
FUNC 5a550 9c 0 next::sdk::events::BaseEventTemplate<std::vector<unsigned char,std::allocator<unsigned char> >,next::sdk::events::SendConfigToServerInformationMessage>::getEventData()
FUNC 5a5f0 21 0 next::sdk::events::BaseEventTemplate<std::vector<unsigned char,std::allocator<unsigned char> >,next::sdk::events::SendConfigToServerInformationMessage>::getEventName()
FUNC 5a620 e 0 next::sdk::events::BaseEventTemplate<std::vector<unsigned char,std::allocator<unsigned char> >,next::sdk::events::SendConfigToServerInformationMessage>::getHeader()
FUNC 5a630 6a 0 next::sdk::events::BaseEventBinary<next::sdk::events::SendConfigToServerInformationMessage>::getNumberOfListeners()
FUNC 5a6a0 234 0 next::sdk::events::BaseEventBinary<next::sdk::events::SendConfigToServerInformationMessage>::initialize()
FUNC 5a8e0 1f0 0 next::sdk::events::BaseEventTemplate<std::vector<unsigned char,std::allocator<unsigned char> >,next::sdk::events::SendConfigToServerInformationMessage>::onEvent(std::vector<unsigned char,std::allocator<unsigned char> > const &,__int64,__int64)
FUNC 5aad0 f3 0 next::sdk::events::BaseEventTemplate<std::vector<unsigned char,std::allocator<unsigned char> >,next::sdk::events::SendConfigToServerInformationMessage>::onEventListenerAdded(std::basic_string<char,std::char_traits<char>,std::allocator<char> > const &)
FUNC 5abd0 f1 0 next::sdk::events::BaseEventTemplate<std::vector<unsigned char,std::allocator<unsigned char> >,next::sdk::events::SendConfigToServerInformationMessage>::onSyncEvent(std::vector<unsigned char,std::allocator<unsigned char> > const &,std::basic_string<char,std::char_traits<char>,std::allocator<char> > &)
FUNC 5acd0 be 0 next::sdk::events::BaseEventBinary<next::sdk::events::SendConfigToServerInformationMessage>::publish(next::sdk::events::SendConfigToServerInformationMessage const &)
FUNC 5ad90 2d0 0 next::sdk::events::BaseEventBinary<next::sdk::events::SendConfigToServerInformationMessage>::publish(next::sdk::events::SendConfigToServerInformationMessage const &,std::list<std::basic_string<char,std::char_traits<char>,std::allocator<char> >,std::allocator<std::basic_string<char,std::char_traits<char>,std::allocator<char> > > > &)
FUNC 5b060 33a 0 next::sdk::events::BaseEventBinary<next::sdk::events::SendConfigToServerInformationMessage>::requestEventUpdate()
FUNC 5b3a0 1b3 0 next::sdk::events::SendConfigToServer::serializeEventPayload(next::sdk::events::SendConfigToServerInformationMessage const &)
FUNC 5b560 1bd 0 next::sdk::events::BaseEventBinary<next::sdk::events::SendConfigToServerInformationMessage>::setUpEventRequestListener()
FUNC 5b720 21f 0 next::sdk::events::BaseEventBinary<next::sdk::events::SendConfigToServerInformationMessage>::subscribe()
FUNC 5b940 24a 0 next::sdk::events::BaseEventBinary<next::sdk::events::SendConfigValueToClientInformationMessage>::BaseEventBinary<next::sdk::events::SendConfigValueToClientInformationMessage>(std::basic_string<char,std::char_traits<char>,std::allocator<char> >)
FUNC 5bb90 1e0 0 next::sdk::events::BaseEventTemplate<std::vector<unsigned char,std::allocator<unsigned char> >,next::sdk::events::SendConfigValueToClientInformationMessage>::BaseEventTemplate<std::vector<unsigned char,std::allocator<unsigned char> >,next::sdk::events::SendConfigValueToClientInformationMessage>(std::basic_string<char,std::char_traits<char>,std::allocator<char> >,std::basic_string<char,std::char_traits<char>,std::allocator<char> >)
FUNC 5bd70 7f 0 next::sdk::events::SendConfigValueToClient::SendConfigValueToClient(std::basic_string<char,std::char_traits<char>,std::allocator<char> >)
FUNC 5bdf0 2b1 0 next::sdk::events::BaseEventBinary<next::sdk::events::SendConfigValueToClientInformationMessage>::~BaseEventBinary<next::sdk::events::SendConfigValueToClientInformationMessage>()
FUNC 5c0b0 106 0 next::sdk::events::BaseEventTemplate<std::vector<unsigned char,std::allocator<unsigned char> >,next::sdk::events::SendConfigValueToClientInformationMessage>::~BaseEventTemplate<std::vector<unsigned char,std::allocator<unsigned char> >,next::sdk::events::SendConfigValueToClientInformationMessage>()
FUNC 5c1c0 5 0 next::sdk::events::SendConfigValueToClient::~SendConfigValueToClient()
FUNC 5c1d0 3a 0 next::sdk::events::SendConfigValueToClientInformationMessage::~SendConfigValueToClientInformationMessage()
PUBLIC 5c20c 0 [thunk]:next::sdk::events::BaseEventTemplate<std::vector<unsigned char,std::allocator<unsigned char> >,next::sdk::events::SendConfigValueToClientInformationMessage>::`vcall'{88,{flat}}' }'
PUBLIC 5c214 0 [thunk]:next::sdk::events::BaseEventTemplate<std::vector<unsigned char,std::allocator<unsigned char> >,next::sdk::events::SendConfigValueToClientInformationMessage>::`vcall'{96,{flat}}' }'
FUNC 5c220 96 0 next::sdk::events::BaseEventBinary<next::sdk::events::SendConfigValueToClientInformationMessage>::`vector deleting destructor'(unsigned int)
FUNC 5c2c0 96 0 next::sdk::events::BaseEventTemplate<std::vector<unsigned char,std::allocator<unsigned char> >,next::sdk::events::SendConfigValueToClientInformationMessage>::`vector deleting destructor'(unsigned int)
FUNC 5c360 96 0 next::sdk::events::SendConfigValueToClient::`vector deleting destructor'(unsigned int)
FUNC 5c400 34 0 next::sdk::events::BaseEventBinary<next::sdk::events::SendConfigValueToClientInformationMessage>::`scalar deleting destructor'(unsigned int)
FUNC 5c440 34 0 next::sdk::events::BaseEventTemplate<std::vector<unsigned char,std::allocator<unsigned char> >,next::sdk::events::SendConfigValueToClientInformationMessage>::`scalar deleting destructor'(unsigned int)
FUNC 5c480 34 0 next::sdk::events::SendConfigValueToClient::`scalar deleting destructor'(unsigned int)
FUNC 5c4c0 16 0 class std::_Func_base<void,std::vector<unsigned char,std::allocator<unsigned char> > const &,__int64,__int64> * std::_Func_impl_no_alloc<<lambda_6551f199cbefae61afedfa85371885e8>,void,std::vector<unsigned char,std::allocator<unsigned char> > const &,__int64,__int64>::_Copy(void *)
FUNC 5c4e0 25 0 class std::_Func_base<void,std::basic_string<char,std::char_traits<char>,std::allocator<char> > > * std::_Func_impl_no_alloc<std::_Binder<std::_Unforced,void (__cdecl next::sdk::events::BaseEventTemplate<std::vector<unsigned char,std::allocator<unsigned char> >,next::sdk::events::SendConfigValueToClientInformationMessage>::*)(std::basic_string<char,std::char_traits<char>,std::allocator<char> > const &),next::sdk::events::BaseEventBinary<next::sdk::events::SendConfigValueToClientInformationMessage> *,std::_Ph<1> const &>,void,std::basic_string<char,std::char_traits<char>,std::allocator<char> > >::_Copy(void *)
FUNC 5c510 33 0 class std::_Func_base<void,std::vector<unsigned char,std::allocator<unsigned char> > const &,__int64,__int64> * std::_Func_impl_no_alloc<std::_Binder<std::_Unforced,void (__cdecl next::sdk::events::BaseEventTemplate<std::vector<unsigned char,std::allocator<unsigned char> >,next::sdk::events::SendConfigValueToClientInformationMessage>::*)(std::vector<unsigned char,std::allocator<unsigned char> > const &,__int64,__int64),next::sdk::events::BaseEventBinary<next::sdk::events::SendConfigValueToClientInformationMessage> *,std::_Ph<1> const &,std::_Ph<2> const &,std::_Ph<3> const &>,void,std::vector<unsigned char,std::allocator<unsigned char> > const &,__int64,__int64>::_Copy(void *)
FUNC 5c550 21 0 void std::_Func_impl_no_alloc<<lambda_6551f199cbefae61afedfa85371885e8>,void,std::vector<unsigned char,std::allocator<unsigned char> > const &,__int64,__int64>::_Delete_this(bool)
FUNC 5c580 21 0 void std::_Func_impl_no_alloc<std::_Binder<std::_Unforced,void (__cdecl next::sdk::events::BaseEventTemplate<std::vector<unsigned char,std::allocator<unsigned char> >,next::sdk::events::SendConfigValueToClientInformationMessage>::*)(std::basic_string<char,std::char_traits<char>,std::allocator<char> > const &),next::sdk::events::BaseEventBinary<next::sdk::events::SendConfigValueToClientInformationMessage> *,std::_Ph<1> const &>,void,std::basic_string<char,std::char_traits<char>,std::allocator<char> > >::_Delete_this(bool)
FUNC 5c5b0 21 0 void std::_Func_impl_no_alloc<std::_Binder<std::_Unforced,void (__cdecl next::sdk::events::BaseEventTemplate<std::vector<unsigned char,std::allocator<unsigned char> >,next::sdk::events::SendConfigValueToClientInformationMessage>::*)(std::vector<unsigned char,std::allocator<unsigned char> > const &,__int64,__int64),next::sdk::events::BaseEventBinary<next::sdk::events::SendConfigValueToClientInformationMessage> *,std::_Ph<1> const &,std::_Ph<2> const &,std::_Ph<3> const &>,void,std::vector<unsigned char,std::allocator<unsigned char> > const &,__int64,__int64>::_Delete_this(bool)
FUNC 5c5e0 c7 0 void std::_Func_impl_no_alloc<<lambda_6551f199cbefae61afedfa85371885e8>,void,std::vector<unsigned char,std::allocator<unsigned char> > const &,__int64,__int64>::_Do_call(const class std::vector<unsigned char,std::allocator<unsigned char> > & const, __int64 *, __int64 *)
FUNC 5c6b0 b 0 void std::_Func_impl_no_alloc<std::_Binder<std::_Unforced,void (__cdecl next::sdk::events::BaseEventTemplate<std::vector<unsigned char,std::allocator<unsigned char> >,next::sdk::events::SendConfigValueToClientInformationMessage>::*)(std::basic_string<char,std::char_traits<char>,std::allocator<char> > const &),next::sdk::events::BaseEventBinary<next::sdk::events::SendConfigValueToClientInformationMessage> *,std::_Ph<1> const &>,void,std::basic_string<char,std::char_traits<char>,std::allocator<char> > >::_Do_call(class std::basic_string<char,std::char_traits<char>,std::allocator<char> > *)
